
read_text.elf:     file format elf32-littleriscv


Disassembly of section .text:

80000000 <crt0>:
80000000:	ff010113          	addi	sp,sp,-16
80000004:	00112623          	sw	ra,12(sp)
80000008:	800052b7          	lui	t0,0x80005
8000000c:	4422a823          	sw	sp,1104(t0) # 80005450 <__heap_start+0xffffc000>
80000010:	800052b7          	lui	t0,0x80005
80000014:	2202a103          	lw	sp,544(t0) # 80005220 <__heap_start+0xffffbdd0>
80000018:	131030ef          	jal	ra,80003948 <main>
8000001c:	800052b7          	lui	t0,0x80005
80000020:	4502a103          	lw	sp,1104(t0) # 80005450 <__heap_start+0xffffc000>
80000024:	00c12083          	lw	ra,12(sp)
80000028:	01010113          	addi	sp,sp,16
8000002c:	00008067          	ret

80000030 <getchar>:
80000030:	ff010113          	addi	sp,sp,-16
80000034:	00112623          	sw	ra,12(sp)
80000038:	750000ef          	jal	ra,80000788 <inbyte>
8000003c:	00c12083          	lw	ra,12(sp)
80000040:	01010113          	addi	sp,sp,16
80000044:	00008067          	ret

80000048 <putchar>:
80000048:	ff010113          	addi	sp,sp,-16
8000004c:	00812423          	sw	s0,8(sp)
80000050:	00050413          	mv	s0,a0
80000054:	0ff57513          	andi	a0,a0,255
80000058:	00112623          	sw	ra,12(sp)
8000005c:	748000ef          	jal	ra,800007a4 <outbyte>
80000060:	00040513          	mv	a0,s0
80000064:	00c12083          	lw	ra,12(sp)
80000068:	00812403          	lw	s0,8(sp)
8000006c:	01010113          	addi	sp,sp,16
80000070:	00008067          	ret

80000074 <fputs>:
80000074:	800057b7          	lui	a5,0x80005
80000078:	2287a783          	lw	a5,552(a5) # 80005228 <__heap_start+0xffffbdd8>
8000007c:	ff010113          	addi	sp,sp,-16
80000080:	00112623          	sw	ra,12(sp)
80000084:	00812423          	sw	s0,8(sp)
80000088:	02b78a63          	beq	a5,a1,800000bc <fputs+0x48>
8000008c:	800057b7          	lui	a5,0x80005
80000090:	22c7a583          	lw	a1,556(a5) # 8000522c <__heap_start+0xffffbddc>
80000094:	80005537          	lui	a0,0x80005
80000098:	c5c50513          	addi	a0,a0,-932 # 80004c5c <__heap_start+0xffffb80c>
8000009c:	fd9ff0ef          	jal	ra,80000074 <fputs>
800000a0:	00a00513          	li	a0,10
800000a4:	700000ef          	jal	ra,800007a4 <outbyte>
800000a8:	00c12083          	lw	ra,12(sp)
800000ac:	00812403          	lw	s0,8(sp)
800000b0:	00a00513          	li	a0,10
800000b4:	01010113          	addi	sp,sp,16
800000b8:	00008067          	ret
800000bc:	00050413          	mv	s0,a0
800000c0:	00054503          	lbu	a0,0(a0)
800000c4:	fc050ee3          	beqz	a0,800000a0 <fputs+0x2c>
800000c8:	00140413          	addi	s0,s0,1
800000cc:	6d8000ef          	jal	ra,800007a4 <outbyte>
800000d0:	00044503          	lbu	a0,0(s0)
800000d4:	fe051ae3          	bnez	a0,800000c8 <fputs+0x54>
800000d8:	00a00513          	li	a0,10
800000dc:	6c8000ef          	jal	ra,800007a4 <outbyte>
800000e0:	00c12083          	lw	ra,12(sp)
800000e4:	00812403          	lw	s0,8(sp)
800000e8:	00a00513          	li	a0,10
800000ec:	01010113          	addi	sp,sp,16
800000f0:	00008067          	ret

800000f4 <fgets>:
800000f4:	800057b7          	lui	a5,0x80005
800000f8:	22c7a783          	lw	a5,556(a5) # 8000522c <__heap_start+0xffffbddc>
800000fc:	fe010113          	addi	sp,sp,-32
80000100:	00112e23          	sw	ra,28(sp)
80000104:	00812c23          	sw	s0,24(sp)
80000108:	00912a23          	sw	s1,20(sp)
8000010c:	01212823          	sw	s2,16(sp)
80000110:	01312623          	sw	s3,12(sp)
80000114:	01412423          	sw	s4,8(sp)
80000118:	06c79663          	bne	a5,a2,80000184 <fgets+0x90>
8000011c:	00050a13          	mv	s4,a0
80000120:	00050413          	mv	s0,a0
80000124:	00a00493          	li	s1,10
80000128:	00d00913          	li	s2,13
8000012c:	00b509b3          	add	s3,a0,a1
80000130:	00059c63          	bnez	a1,80000148 <fgets+0x54>
80000134:	0200006f          	j	80000154 <fgets+0x60>
80000138:	01250e63          	beq	a0,s2,80000154 <fgets+0x60>
8000013c:	00140413          	addi	s0,s0,1
80000140:	664000ef          	jal	ra,800007a4 <outbyte>
80000144:	01340863          	beq	s0,s3,80000154 <fgets+0x60>
80000148:	640000ef          	jal	ra,80000788 <inbyte>
8000014c:	00a40023          	sb	a0,0(s0)
80000150:	fe9514e3          	bne	a0,s1,80000138 <fgets+0x44>
80000154:	00a00513          	li	a0,10
80000158:	64c000ef          	jal	ra,800007a4 <outbyte>
8000015c:	00040023          	sb	zero,0(s0)
80000160:	01c12083          	lw	ra,28(sp)
80000164:	01812403          	lw	s0,24(sp)
80000168:	000a0513          	mv	a0,s4
8000016c:	01412483          	lw	s1,20(sp)
80000170:	01012903          	lw	s2,16(sp)
80000174:	00c12983          	lw	s3,12(sp)
80000178:	00812a03          	lw	s4,8(sp)
8000017c:	02010113          	addi	sp,sp,32
80000180:	00008067          	ret
80000184:	80005537          	lui	a0,0x80005
80000188:	00078593          	mv	a1,a5
8000018c:	c8850513          	addi	a0,a0,-888 # 80004c88 <__heap_start+0xffffb838>
80000190:	ee5ff0ef          	jal	ra,80000074 <fputs>
80000194:	01c12083          	lw	ra,28(sp)
80000198:	01812403          	lw	s0,24(sp)
8000019c:	01412483          	lw	s1,20(sp)
800001a0:	01012903          	lw	s2,16(sp)
800001a4:	00c12983          	lw	s3,12(sp)
800001a8:	00812a03          	lw	s4,8(sp)
800001ac:	00000513          	li	a0,0
800001b0:	02010113          	addi	sp,sp,32
800001b4:	00008067          	ret

800001b8 <putd>:
800001b8:	0c050063          	beqz	a0,80000278 <putd+0xc0>
800001bc:	fe010113          	addi	sp,sp,-32
800001c0:	00912a23          	sw	s1,20(sp)
800001c4:	01512223          	sw	s5,4(sp)
800001c8:	00112e23          	sw	ra,28(sp)
800001cc:	00812c23          	sw	s0,24(sp)
800001d0:	01212823          	sw	s2,16(sp)
800001d4:	01312623          	sw	s3,12(sp)
800001d8:	01412423          	sw	s4,8(sp)
800001dc:	00050493          	mv	s1,a0
800001e0:	00058a93          	mv	s5,a1
800001e4:	08060063          	beqz	a2,80000264 <putd+0xac>
800001e8:	3b9ad7b7          	lui	a5,0x3b9ad
800001ec:	00a00413          	li	s0,10
800001f0:	00100a13          	li	s4,1
800001f4:	a0078793          	addi	a5,a5,-1536 # 3b9aca00 <__heap_size+0x3b9a8a00>
800001f8:	00a00993          	li	s3,10
800001fc:	0240006f          	j	80000220 <putd+0x68>
80000200:	02f4f4b3          	remu	s1,s1,a5
80000204:	00000a13          	li	s4,0
80000208:	03050513          	addi	a0,a0,48
8000020c:	0ff57513          	andi	a0,a0,255
80000210:	594000ef          	jal	ra,800007a4 <outbyte>
80000214:	fff40413          	addi	s0,s0,-1
80000218:	00090793          	mv	a5,s2
8000021c:	02040263          	beqz	s0,80000240 <putd+0x88>
80000220:	02f4d533          	divu	a0,s1,a5
80000224:	0337d933          	divu	s2,a5,s3
80000228:	fc051ce3          	bnez	a0,80000200 <putd+0x48>
8000022c:	fc0a0ee3          	beqz	s4,80000208 <putd+0x50>
80000230:	fc0a9ce3          	bnez	s5,80000208 <putd+0x50>
80000234:	fff40413          	addi	s0,s0,-1
80000238:	00090793          	mv	a5,s2
8000023c:	fe0412e3          	bnez	s0,80000220 <putd+0x68>
80000240:	01c12083          	lw	ra,28(sp)
80000244:	01812403          	lw	s0,24(sp)
80000248:	01412483          	lw	s1,20(sp)
8000024c:	01012903          	lw	s2,16(sp)
80000250:	00c12983          	lw	s3,12(sp)
80000254:	00812a03          	lw	s4,8(sp)
80000258:	00412a83          	lw	s5,4(sp)
8000025c:	02010113          	addi	sp,sp,32
80000260:	00008067          	ret
80000264:	f80552e3          	bgez	a0,800001e8 <putd+0x30>
80000268:	02d00513          	li	a0,45
8000026c:	409004b3          	neg	s1,s1
80000270:	534000ef          	jal	ra,800007a4 <outbyte>
80000274:	f75ff06f          	j	800001e8 <putd+0x30>
80000278:	03000513          	li	a0,48
8000027c:	5280006f          	j	800007a4 <outbyte>

80000280 <putx>:
80000280:	fd010113          	addi	sp,sp,-48
80000284:	01f5d793          	srli	a5,a1,0x1f
80000288:	03212023          	sw	s2,32(sp)
8000028c:	00f58933          	add	s2,a1,a5
80000290:	00197913          	andi	s2,s2,1
80000294:	40f90933          	sub	s2,s2,a5
80000298:	800057b7          	lui	a5,0x80005
8000029c:	cb478793          	addi	a5,a5,-844 # 80004cb4 <__heap_start+0xffffb864>
800002a0:	00f12423          	sw	a5,8(sp)
800002a4:	800057b7          	lui	a5,0x80005
800002a8:	cc878793          	addi	a5,a5,-824 # 80004cc8 <__heap_start+0xffffb878>
800002ac:	00291913          	slli	s2,s2,0x2
800002b0:	00f12623          	sw	a5,12(sp)
800002b4:	01010793          	addi	a5,sp,16
800002b8:	02812423          	sw	s0,40(sp)
800002bc:	02912223          	sw	s1,36(sp)
800002c0:	01312e23          	sw	s3,28(sp)
800002c4:	01412c23          	sw	s4,24(sp)
800002c8:	01512a23          	sw	s5,20(sp)
800002cc:	01612823          	sw	s6,16(sp)
800002d0:	02112623          	sw	ra,44(sp)
800002d4:	00050493          	mv	s1,a0
800002d8:	00060a93          	mv	s5,a2
800002dc:	01c00413          	li	s0,28
800002e0:	00100a13          	li	s4,1
800002e4:	01278933          	add	s2,a5,s2
800002e8:	02000b13          	li	s6,32
800002ec:	ffc00993          	li	s3,-4
800002f0:	0240006f          	j	80000314 <putx+0x94>
800002f4:	00f6d4b3          	srl	s1,a3,a5
800002f8:	00000a13          	li	s4,0
800002fc:	ff892783          	lw	a5,-8(s2)
80000300:	ffc40413          	addi	s0,s0,-4
80000304:	00e787b3          	add	a5,a5,a4
80000308:	0007c503          	lbu	a0,0(a5)
8000030c:	498000ef          	jal	ra,800007a4 <outbyte>
80000310:	03340263          	beq	s0,s3,80000334 <putx+0xb4>
80000314:	408b07b3          	sub	a5,s6,s0
80000318:	0084d733          	srl	a4,s1,s0
8000031c:	00f496b3          	sll	a3,s1,a5
80000320:	fc071ae3          	bnez	a4,800002f4 <putx+0x74>
80000324:	fc0a0ce3          	beqz	s4,800002fc <putx+0x7c>
80000328:	fc0a9ae3          	bnez	s5,800002fc <putx+0x7c>
8000032c:	ffc40413          	addi	s0,s0,-4
80000330:	ff3412e3          	bne	s0,s3,80000314 <putx+0x94>
80000334:	02c12083          	lw	ra,44(sp)
80000338:	02812403          	lw	s0,40(sp)
8000033c:	02412483          	lw	s1,36(sp)
80000340:	02012903          	lw	s2,32(sp)
80000344:	01c12983          	lw	s3,28(sp)
80000348:	01812a03          	lw	s4,24(sp)
8000034c:	01412a83          	lw	s5,20(sp)
80000350:	01012b03          	lw	s6,16(sp)
80000354:	03010113          	addi	sp,sp,48
80000358:	00008067          	ret

8000035c <putf>:
8000035c:	fe010113          	addi	sp,sp,-32
80000360:	00812c23          	sw	s0,24(sp)
80000364:	00912a23          	sw	s1,20(sp)
80000368:	00058413          	mv	s0,a1
8000036c:	00050493          	mv	s1,a0
80000370:	01312623          	sw	s3,12(sp)
80000374:	00048513          	mv	a0,s1
80000378:	00060993          	mv	s3,a2
8000037c:	00040593          	mv	a1,s0
80000380:	00000613          	li	a2,0
80000384:	00000693          	li	a3,0
80000388:	00112e23          	sw	ra,28(sp)
8000038c:	01212823          	sw	s2,16(sp)
80000390:	01412423          	sw	s4,8(sp)
80000394:	01612223          	sw	s6,4(sp)
80000398:	01712023          	sw	s7,0(sp)
8000039c:	5c8020ef          	jal	ra,80002964 <__ledf2>
800003a0:	10054e63          	bltz	a0,800004bc <putf+0x160>
800003a4:	00040593          	mv	a1,s0
800003a8:	00048513          	mv	a0,s1
800003ac:	424030ef          	jal	ra,800037d0 <__fixdfsi>
800003b0:	00050a13          	mv	s4,a0
800003b4:	49c030ef          	jal	ra,80003850 <__floatsidf>
800003b8:	00050613          	mv	a2,a0
800003bc:	00058693          	mv	a3,a1
800003c0:	00048513          	mv	a0,s1
800003c4:	00040593          	mv	a1,s0
800003c8:	445020ef          	jal	ra,8000300c <__subdf3>
800003cc:	00050b13          	mv	s6,a0
800003d0:	00058b93          	mv	s7,a1
800003d4:	0f305e63          	blez	s3,800004d0 <putf+0x174>
800003d8:	00100413          	li	s0,1
800003dc:	00000913          	li	s2,0
800003e0:	0080006f          	j	800003e8 <putf+0x8c>
800003e4:	00048913          	mv	s2,s1
800003e8:	00241793          	slli	a5,s0,0x2
800003ec:	00878433          	add	s0,a5,s0
800003f0:	00190493          	addi	s1,s2,1
800003f4:	00141413          	slli	s0,s0,0x1
800003f8:	fe9996e3          	bne	s3,s1,800003e4 <putf+0x88>
800003fc:	00040513          	mv	a0,s0
80000400:	450030ef          	jal	ra,80003850 <__floatsidf>
80000404:	000b0613          	mv	a2,s6
80000408:	000b8693          	mv	a3,s7
8000040c:	640020ef          	jal	ra,80002a4c <__muldf3>
80000410:	800047b7          	lui	a5,0x80004
80000414:	a187a603          	lw	a2,-1512(a5) # 80003a18 <__heap_start+0xffffa5c8>
80000418:	a1c7a683          	lw	a3,-1508(a5)
8000041c:	589010ef          	jal	ra,800021a4 <__adddf3>
80000420:	3b0030ef          	jal	ra,800037d0 <__fixdfsi>
80000424:	028547b3          	div	a5,a0,s0
80000428:	00050993          	mv	s3,a0
8000042c:	0c079463          	bnez	a5,800004f4 <putf+0x198>
80000430:	00048793          	mv	a5,s1
80000434:	00a00693          	li	a3,10
80000438:	00c0006f          	j	80000444 <putf+0xe8>
8000043c:	0289c733          	div	a4,s3,s0
80000440:	06071663          	bnez	a4,800004ac <putf+0x150>
80000444:	fff78793          	addi	a5,a5,-1
80000448:	02d44433          	div	s0,s0,a3
8000044c:	fe0798e3          	bnez	a5,8000043c <putf+0xe0>
80000450:	040a1463          	bnez	s4,80000498 <putf+0x13c>
80000454:	03000513          	li	a0,48
80000458:	34c000ef          	jal	ra,800007a4 <outbyte>
8000045c:	02e00513          	li	a0,46
80000460:	344000ef          	jal	ra,800007a4 <outbyte>
80000464:	01812403          	lw	s0,24(sp)
80000468:	01c12083          	lw	ra,28(sp)
8000046c:	01412483          	lw	s1,20(sp)
80000470:	00812a03          	lw	s4,8(sp)
80000474:	00412b03          	lw	s6,4(sp)
80000478:	00012b83          	lw	s7,0(sp)
8000047c:	00090593          	mv	a1,s2
80000480:	00098513          	mv	a0,s3
80000484:	01012903          	lw	s2,16(sp)
80000488:	00c12983          	lw	s3,12(sp)
8000048c:	00100613          	li	a2,1
80000490:	02010113          	addi	sp,sp,32
80000494:	d25ff06f          	j	800001b8 <putd>
80000498:	00100613          	li	a2,1
8000049c:	00000593          	li	a1,0
800004a0:	000a0513          	mv	a0,s4
800004a4:	d15ff0ef          	jal	ra,800001b8 <putd>
800004a8:	fb5ff06f          	j	8000045c <putf+0x100>
800004ac:	40f487b3          	sub	a5,s1,a5
800004b0:	fff78913          	addi	s2,a5,-1
800004b4:	fa0a00e3          	beqz	s4,80000454 <putf+0xf8>
800004b8:	fe1ff06f          	j	80000498 <putf+0x13c>
800004bc:	800007b7          	lui	a5,0x80000
800004c0:	02d00513          	li	a0,45
800004c4:	0087c433          	xor	s0,a5,s0
800004c8:	2dc000ef          	jal	ra,800007a4 <outbyte>
800004cc:	ed9ff06f          	j	800003a4 <putf+0x48>
800004d0:	800047b7          	lui	a5,0x80004
800004d4:	a187a603          	lw	a2,-1512(a5) # 80003a18 <__heap_start+0xffffa5c8>
800004d8:	a1c7a683          	lw	a3,-1508(a5)
800004dc:	fff00913          	li	s2,-1
800004e0:	4c5010ef          	jal	ra,800021a4 <__adddf3>
800004e4:	2ec030ef          	jal	ra,800037d0 <__fixdfsi>
800004e8:	00050993          	mv	s3,a0
800004ec:	f60a04e3          	beqz	s4,80000454 <putf+0xf8>
800004f0:	fa9ff06f          	j	80000498 <putf+0x13c>
800004f4:	fff00913          	li	s2,-1
800004f8:	f40a0ee3          	beqz	s4,80000454 <putf+0xf8>
800004fc:	f9dff06f          	j	80000498 <putf+0x13c>

80000500 <printf>:
80000500:	f8010113          	addi	sp,sp,-128
80000504:	03b12623          	sw	s11,44(sp)
80000508:	06f12a23          	sw	a5,116(sp)
8000050c:	04112e23          	sw	ra,92(sp)
80000510:	04812c23          	sw	s0,88(sp)
80000514:	04912a23          	sw	s1,84(sp)
80000518:	05212823          	sw	s2,80(sp)
8000051c:	05312623          	sw	s3,76(sp)
80000520:	05412423          	sw	s4,72(sp)
80000524:	05512223          	sw	s5,68(sp)
80000528:	05612023          	sw	s6,64(sp)
8000052c:	03712e23          	sw	s7,60(sp)
80000530:	03812c23          	sw	s8,56(sp)
80000534:	03912a23          	sw	s9,52(sp)
80000538:	03a12823          	sw	s10,48(sp)
8000053c:	06b12223          	sw	a1,100(sp)
80000540:	06c12423          	sw	a2,104(sp)
80000544:	06d12623          	sw	a3,108(sp)
80000548:	06e12823          	sw	a4,112(sp)
8000054c:	07012c23          	sw	a6,120(sp)
80000550:	07112e23          	sw	a7,124(sp)
80000554:	06410793          	addi	a5,sp,100
80000558:	00050d93          	mv	s11,a0
8000055c:	00054503          	lbu	a0,0(a0)
80000560:	00f12e23          	sw	a5,28(sp)
80000564:	00600793          	li	a5,6
80000568:	00f12623          	sw	a5,12(sp)
8000056c:	12050063          	beqz	a0,8000068c <printf+0x18c>
80000570:	80005937          	lui	s2,0x80005
80000574:	00000c93          	li	s9,0
80000578:	00000d13          	li	s10,0
8000057c:	02500493          	li	s1,37
80000580:	03000b93          	li	s7,48
80000584:	07500b13          	li	s6,117
80000588:	06c00a93          	li	s5,108
8000058c:	02e00a13          	li	s4,46
80000590:	02000993          	li	s3,32
80000594:	bd890913          	addi	s2,s2,-1064 # 80004bd8 <__heap_start+0xffffb788>
80000598:	01c0006f          	j	800005b4 <printf+0xb4>
8000059c:	208000ef          	jal	ra,800007a4 <outbyte>
800005a0:	00040793          	mv	a5,s0
800005a4:	000d8413          	mv	s0,s11
800005a8:	00078d93          	mv	s11,a5
800005ac:	00144503          	lbu	a0,1(s0)
800005b0:	0c050e63          	beqz	a0,8000068c <printf+0x18c>
800005b4:	001d8413          	addi	s0,s11,1
800005b8:	fe9512e3          	bne	a0,s1,8000059c <printf+0x9c>
800005bc:	001dc703          	lbu	a4,1(s11)
800005c0:	11770663          	beq	a4,s7,800006cc <printf+0x1cc>
800005c4:	fd070793          	addi	a5,a4,-48
800005c8:	0ff7f793          	andi	a5,a5,255
800005cc:	00900693          	li	a3,9
800005d0:	00f6ee63          	bltu	a3,a5,800005ec <printf+0xec>
800005d4:	00900693          	li	a3,9
800005d8:	00140413          	addi	s0,s0,1
800005dc:	00044703          	lbu	a4,0(s0)
800005e0:	fd070793          	addi	a5,a4,-48
800005e4:	0ff7f793          	andi	a5,a5,255
800005e8:	fef6f8e3          	bleu	a5,a3,800005d8 <printf+0xd8>
800005ec:	01671663          	bne	a4,s6,800005f8 <printf+0xf8>
800005f0:	00140413          	addi	s0,s0,1
800005f4:	00100d13          	li	s10,1
800005f8:	00044503          	lbu	a0,0(s0)
800005fc:	03550463          	beq	a0,s5,80000624 <printf+0x124>
80000600:	03450863          	beq	a0,s4,80000630 <printf+0x130>
80000604:	fa850793          	addi	a5,a0,-88
80000608:	0ff7f793          	andi	a5,a5,255
8000060c:	00140d93          	addi	s11,s0,1
80000610:	06f9e863          	bltu	s3,a5,80000680 <printf+0x180>
80000614:	00279793          	slli	a5,a5,0x2
80000618:	012787b3          	add	a5,a5,s2
8000061c:	0007a783          	lw	a5,0(a5)
80000620:	00078067          	jr	a5
80000624:	00144503          	lbu	a0,1(s0)
80000628:	00140413          	addi	s0,s0,1
8000062c:	fd451ce3          	bne	a0,s4,80000604 <printf+0x104>
80000630:	00144c03          	lbu	s8,1(s0)
80000634:	00a00693          	li	a3,10
80000638:	00244503          	lbu	a0,2(s0)
8000063c:	fd0c0c13          	addi	s8,s8,-48
80000640:	02dc66b3          	rem	a3,s8,a3
80000644:	fd050793          	addi	a5,a0,-48
80000648:	0ff7f793          	andi	a5,a5,255
8000064c:	00900713          	li	a4,9
80000650:	00240413          	addi	s0,s0,2
80000654:	00d12623          	sw	a3,12(sp)
80000658:	faf766e3          	bltu	a4,a5,80000604 <printf+0x104>
8000065c:	00140413          	addi	s0,s0,1
80000660:	00044503          	lbu	a0,0(s0)
80000664:	fd050793          	addi	a5,a0,-48
80000668:	0ff7f793          	andi	a5,a5,255
8000066c:	fef778e3          	bleu	a5,a4,8000065c <printf+0x15c>
80000670:	fa850793          	addi	a5,a0,-88
80000674:	0ff7f793          	andi	a5,a5,255
80000678:	00140d93          	addi	s11,s0,1
8000067c:	f8f9fce3          	bleu	a5,s3,80000614 <printf+0x114>
80000680:	124000ef          	jal	ra,800007a4 <outbyte>
80000684:	00144503          	lbu	a0,1(s0)
80000688:	f20516e3          	bnez	a0,800005b4 <printf+0xb4>
8000068c:	05c12083          	lw	ra,92(sp)
80000690:	05812403          	lw	s0,88(sp)
80000694:	05412483          	lw	s1,84(sp)
80000698:	05012903          	lw	s2,80(sp)
8000069c:	04c12983          	lw	s3,76(sp)
800006a0:	04812a03          	lw	s4,72(sp)
800006a4:	04412a83          	lw	s5,68(sp)
800006a8:	04012b03          	lw	s6,64(sp)
800006ac:	03c12b83          	lw	s7,60(sp)
800006b0:	03812c03          	lw	s8,56(sp)
800006b4:	03412c83          	lw	s9,52(sp)
800006b8:	03012d03          	lw	s10,48(sp)
800006bc:	02c12d83          	lw	s11,44(sp)
800006c0:	00000513          	li	a0,0
800006c4:	08010113          	addi	sp,sp,128
800006c8:	00008067          	ret
800006cc:	00100c93          	li	s9,1
800006d0:	f05ff06f          	j	800005d4 <printf+0xd4>
800006d4:	01c12783          	lw	a5,28(sp)
800006d8:	000c8613          	mv	a2,s9
800006dc:	00000593          	li	a1,0
800006e0:	0007a503          	lw	a0,0(a5)
800006e4:	00478793          	addi	a5,a5,4
800006e8:	00f12e23          	sw	a5,28(sp)
800006ec:	b95ff0ef          	jal	ra,80000280 <putx>
800006f0:	ebdff06f          	j	800005ac <printf+0xac>
800006f4:	01c12703          	lw	a4,28(sp)
800006f8:	00072c03          	lw	s8,0(a4)
800006fc:	00470713          	addi	a4,a4,4
80000700:	00e12e23          	sw	a4,28(sp)
80000704:	000c4503          	lbu	a0,0(s8)
80000708:	ea0502e3          	beqz	a0,800005ac <printf+0xac>
8000070c:	001c0c13          	addi	s8,s8,1
80000710:	094000ef          	jal	ra,800007a4 <outbyte>
80000714:	000c4503          	lbu	a0,0(s8)
80000718:	fe051ae3          	bnez	a0,8000070c <printf+0x20c>
8000071c:	e91ff06f          	j	800005ac <printf+0xac>
80000720:	01c12783          	lw	a5,28(sp)
80000724:	00c12603          	lw	a2,12(sp)
80000728:	00778793          	addi	a5,a5,7
8000072c:	ff87f793          	andi	a5,a5,-8
80000730:	0007a503          	lw	a0,0(a5)
80000734:	0047a583          	lw	a1,4(a5)
80000738:	00878793          	addi	a5,a5,8
8000073c:	00f12e23          	sw	a5,28(sp)
80000740:	c1dff0ef          	jal	ra,8000035c <putf>
80000744:	e69ff06f          	j	800005ac <printf+0xac>
80000748:	01c12783          	lw	a5,28(sp)
8000074c:	000d0613          	mv	a2,s10
80000750:	00000593          	li	a1,0
80000754:	0007a503          	lw	a0,0(a5)
80000758:	00478793          	addi	a5,a5,4
8000075c:	00f12e23          	sw	a5,28(sp)
80000760:	a59ff0ef          	jal	ra,800001b8 <putd>
80000764:	e49ff06f          	j	800005ac <printf+0xac>
80000768:	01c12783          	lw	a5,28(sp)
8000076c:	000c8613          	mv	a2,s9
80000770:	00100593          	li	a1,1
80000774:	0007a503          	lw	a0,0(a5)
80000778:	00478793          	addi	a5,a5,4
8000077c:	00f12e23          	sw	a5,28(sp)
80000780:	b01ff0ef          	jal	ra,80000280 <putx>
80000784:	e29ff06f          	j	800005ac <printf+0xac>

80000788 <inbyte>:
80000788:	c0000737          	lui	a4,0xc0000
8000078c:	00872783          	lw	a5,8(a4) # c0000008 <__heap_start+0x3fff6bb8>
80000790:	0017f793          	andi	a5,a5,1
80000794:	fe078ce3          	beqz	a5,8000078c <inbyte+0x4>
80000798:	00072503          	lw	a0,0(a4)
8000079c:	0ff57513          	andi	a0,a0,255
800007a0:	00008067          	ret

800007a4 <outbyte>:
800007a4:	00a00793          	li	a5,10
800007a8:	00f50e63          	beq	a0,a5,800007c4 <outbyte+0x20>
800007ac:	c0000737          	lui	a4,0xc0000
800007b0:	00872783          	lw	a5,8(a4) # c0000008 <__heap_start+0x3fff6bb8>
800007b4:	0087f793          	andi	a5,a5,8
800007b8:	fe079ce3          	bnez	a5,800007b0 <outbyte+0xc>
800007bc:	00a72223          	sw	a0,4(a4)
800007c0:	00008067          	ret
800007c4:	c0000737          	lui	a4,0xc0000
800007c8:	00872783          	lw	a5,8(a4) # c0000008 <__heap_start+0x3fff6bb8>
800007cc:	0087f793          	andi	a5,a5,8
800007d0:	fe079ce3          	bnez	a5,800007c8 <outbyte+0x24>
800007d4:	00d00793          	li	a5,13
800007d8:	00f72223          	sw	a5,4(a4)
800007dc:	fd1ff06f          	j	800007ac <outbyte+0x8>

800007e0 <get_next_cluster>:
800007e0:	0005a783          	lw	a5,0(a1)
800007e4:	fe010113          	addi	sp,sp,-32
800007e8:	00812c23          	sw	s0,24(sp)
800007ec:	01312623          	sw	s3,12(sp)
800007f0:	00112e23          	sw	ra,28(sp)
800007f4:	00912a23          	sw	s1,20(sp)
800007f8:	01212823          	sw	s2,16(sp)
800007fc:	fff00713          	li	a4,-1
80000800:	00955993          	srli	s3,a0,0x9
80000804:	1ff57413          	andi	s0,a0,511
80000808:	00e78663          	beq	a5,a4,80000814 <get_next_cluster+0x34>
8000080c:	800044b7          	lui	s1,0x80004
80000810:	03378663          	beq	a5,s3,8000083c <get_next_cluster+0x5c>
80000814:	00058913          	mv	s2,a1
80000818:	00b99593          	slli	a1,s3,0xb
8000081c:	00060793          	mv	a5,a2
80000820:	0095d593          	srli	a1,a1,0x9
80000824:	800044b7          	lui	s1,0x80004
80000828:	00400613          	li	a2,4
8000082c:	00f585b3          	add	a1,a1,a5
80000830:	20048513          	addi	a0,s1,512 # 80004200 <__heap_start+0xffffadb0>
80000834:	3fc010ef          	jal	ra,80001c30 <sd_copy>
80000838:	01392023          	sw	s3,0(s2)
8000083c:	00241513          	slli	a0,s0,0x2
80000840:	01c12083          	lw	ra,28(sp)
80000844:	01812403          	lw	s0,24(sp)
80000848:	20048493          	addi	s1,s1,512
8000084c:	00950533          	add	a0,a0,s1
80000850:	00052503          	lw	a0,0(a0)
80000854:	01412483          	lw	s1,20(sp)
80000858:	01012903          	lw	s2,16(sp)
8000085c:	00c12983          	lw	s3,12(sp)
80000860:	02010113          	addi	sp,sp,32
80000864:	00008067          	ret

80000868 <copy_file>:
80000868:	fc010113          	addi	sp,sp,-64
8000086c:	02912a23          	sw	s1,52(sp)
80000870:	03312623          	sw	s3,44(sp)
80000874:	03612023          	sw	s6,32(sp)
80000878:	01712e23          	sw	s7,28(sp)
8000087c:	02112e23          	sw	ra,60(sp)
80000880:	02812c23          	sw	s0,56(sp)
80000884:	03212823          	sw	s2,48(sp)
80000888:	03412423          	sw	s4,40(sp)
8000088c:	03512223          	sw	s5,36(sp)
80000890:	01812c23          	sw	s8,24(sp)
80000894:	00058b93          	mv	s7,a1
80000898:	0255c703          	lbu	a4,37(a1)
8000089c:	026bc783          	lbu	a5,38(s7)
800008a0:	0245c583          	lbu	a1,36(a1)
800008a4:	027bc903          	lbu	s2,39(s7)
800008a8:	00871713          	slli	a4,a4,0x8
800008ac:	00b76733          	or	a4,a4,a1
800008b0:	01079793          	slli	a5,a5,0x10
800008b4:	010bc583          	lbu	a1,16(s7)
800008b8:	00e7e7b3          	or	a5,a5,a4
800008bc:	01891913          	slli	s2,s2,0x18
800008c0:	00f96933          	or	s2,s2,a5
800008c4:	02b90933          	mul	s2,s2,a1
800008c8:	00fbca83          	lbu	s5,15(s7)
800008cc:	00ebc783          	lbu	a5,14(s7)
800008d0:	00cbca03          	lbu	s4,12(s7)
800008d4:	008a9a93          	slli	s5,s5,0x8
800008d8:	00faeab3          	or	s5,s5,a5
800008dc:	001a5713          	srli	a4,s4,0x1
800008e0:	0156c783          	lbu	a5,21(a3)
800008e4:	0146c583          	lbu	a1,20(a3)
800008e8:	01b6c403          	lbu	s0,27(a3)
800008ec:	01590933          	add	s2,s2,s5
800008f0:	02e90933          	mul	s2,s2,a4
800008f4:	00068993          	mv	s3,a3
800008f8:	01a6c683          	lbu	a3,26(a3)
800008fc:	00879793          	slli	a5,a5,0x8
80000900:	00dbca03          	lbu	s4,13(s7)
80000904:	00b7e7b3          	or	a5,a5,a1
80000908:	00841413          	slli	s0,s0,0x8
8000090c:	00d46433          	or	s0,s0,a3
80000910:	01079793          	slli	a5,a5,0x10
80000914:	10000b37          	lui	s6,0x10000
80000918:	02ea8ab3          	mul	s5,s5,a4
8000091c:	fff00693          	li	a3,-1
80000920:	00d12623          	sw	a3,12(sp)
80000924:	00f40433          	add	s0,s0,a5
80000928:	ff7b0b13          	addi	s6,s6,-9 # ffffff7 <__heap_size+0xfffbff7>
8000092c:	00c90933          	add	s2,s2,a2
80000930:	00050493          	mv	s1,a0
80000934:	02ea0a33          	mul	s4,s4,a4
80000938:	00ca8ab3          	add	s5,s5,a2
8000093c:	028b7863          	bleu	s0,s6,8000096c <copy_file+0x104>
80000940:	07c0006f          	j	800009bc <copy_file+0x154>
80000944:	00cbc783          	lbu	a5,12(s7)
80000948:	00bbc683          	lbu	a3,11(s7)
8000094c:	00dbc703          	lbu	a4,13(s7)
80000950:	00879793          	slli	a5,a5,0x8
80000954:	00d7e7b3          	or	a5,a5,a3
80000958:	02f707b3          	mul	a5,a4,a5
8000095c:	00f484b3          	add	s1,s1,a5
80000960:	e81ff0ef          	jal	ra,800007e0 <get_next_cluster>
80000964:	00050413          	mv	s0,a0
80000968:	04ab6a63          	bltu	s6,a0,800009bc <copy_file+0x154>
8000096c:	ffe40593          	addi	a1,s0,-2
80000970:	034585b3          	mul	a1,a1,s4
80000974:	000a0613          	mv	a2,s4
80000978:	00048513          	mv	a0,s1
8000097c:	012585b3          	add	a1,a1,s2
80000980:	2b0010ef          	jal	ra,80001c30 <sd_copy>
80000984:	00050c13          	mv	s8,a0
80000988:	000a8613          	mv	a2,s5
8000098c:	00c10593          	addi	a1,sp,12
80000990:	00040513          	mv	a0,s0
80000994:	fa0c08e3          	beqz	s8,80000944 <copy_file+0xdc>
80000998:	80005537          	lui	a0,0x80005
8000099c:	cdc50513          	addi	a0,a0,-804 # 80004cdc <__heap_start+0xffffb88c>
800009a0:	b61ff0ef          	jal	ra,80000500 <printf>
800009a4:	80005537          	lui	a0,0x80005
800009a8:	000c0593          	mv	a1,s8
800009ac:	cf450513          	addi	a0,a0,-780 # 80004cf4 <__heap_start+0xffffb8a4>
800009b0:	b51ff0ef          	jal	ra,80000500 <printf>
800009b4:	00000513          	li	a0,0
800009b8:	02c0006f          	j	800009e4 <copy_file+0x17c>
800009bc:	01d9c703          	lbu	a4,29(s3)
800009c0:	01c9c683          	lbu	a3,28(s3)
800009c4:	01e9c783          	lbu	a5,30(s3)
800009c8:	01f9c503          	lbu	a0,31(s3)
800009cc:	00871713          	slli	a4,a4,0x8
800009d0:	00d76733          	or	a4,a4,a3
800009d4:	01079793          	slli	a5,a5,0x10
800009d8:	00e7e7b3          	or	a5,a5,a4
800009dc:	01851513          	slli	a0,a0,0x18
800009e0:	00f56533          	or	a0,a0,a5
800009e4:	03c12083          	lw	ra,60(sp)
800009e8:	03812403          	lw	s0,56(sp)
800009ec:	03412483          	lw	s1,52(sp)
800009f0:	03012903          	lw	s2,48(sp)
800009f4:	02c12983          	lw	s3,44(sp)
800009f8:	02812a03          	lw	s4,40(sp)
800009fc:	02412a83          	lw	s5,36(sp)
80000a00:	02012b03          	lw	s6,32(sp)
80000a04:	01c12b83          	lw	s7,28(sp)
80000a08:	01812c03          	lw	s8,24(sp)
80000a0c:	04010113          	addi	sp,sp,64
80000a10:	00008067          	ret

80000a14 <get_partition_first_lba>:
80000a14:	fc010113          	addi	sp,sp,-64
80000a18:	03512223          	sw	s5,36(sp)
80000a1c:	02112e23          	sw	ra,60(sp)
80000a20:	02812c23          	sw	s0,56(sp)
80000a24:	02912a23          	sw	s1,52(sp)
80000a28:	03212823          	sw	s2,48(sp)
80000a2c:	03312623          	sw	s3,44(sp)
80000a30:	03412423          	sw	s4,40(sp)
80000a34:	03612023          	sw	s6,32(sp)
80000a38:	01712e23          	sw	s7,28(sp)
80000a3c:	01812c23          	sw	s8,24(sp)
80000a40:	01912a23          	sw	s9,20(sp)
80000a44:	01a12823          	sw	s10,16(sp)
80000a48:	01b12623          	sw	s11,12(sp)
80000a4c:	00050a93          	mv	s5,a0
80000a50:	0cc010ef          	jal	ra,80001b1c <init_sd>
80000a54:	26051463          	bnez	a0,80000cbc <get_partition_first_lba+0x2a8>
80000a58:	80005537          	lui	a0,0x80005
80000a5c:	d4050513          	addi	a0,a0,-704 # 80004d40 <__heap_start+0xffffb8f0>
80000a60:	aa1ff0ef          	jal	ra,80000500 <printf>
80000a64:	80004437          	lui	s0,0x80004
80000a68:	00100613          	li	a2,1
80000a6c:	00000593          	li	a1,0
80000a70:	00040513          	mv	a0,s0
80000a74:	1bc010ef          	jal	ra,80001c30 <sd_copy>
80000a78:	00040a13          	mv	s4,s0
80000a7c:	28051663          	bnez	a0,80000d08 <get_partition_first_lba+0x2f4>
80000a80:	1c2a4703          	lbu	a4,450(s4)
80000a84:	0ee00793          	li	a5,238
80000a88:	02f70863          	beq	a4,a5,80000ab8 <get_partition_first_lba+0xa4>
80000a8c:	00300793          	li	a5,3
80000a90:	2957ea63          	bltu	a5,s5,80000d24 <get_partition_first_lba+0x310>
80000a94:	01ba8793          	addi	a5,s5,27
80000a98:	00479793          	slli	a5,a5,0x4
80000a9c:	00fa07b3          	add	a5,s4,a5
80000aa0:	0187d503          	lhu	a0,24(a5)
80000aa4:	0167d783          	lhu	a5,22(a5)
80000aa8:	00000593          	li	a1,0
80000aac:	01051513          	slli	a0,a0,0x10
80000ab0:	00f56533          	or	a0,a0,a5
80000ab4:	1c051663          	bnez	a0,80000c80 <get_partition_first_lba+0x26c>
80000ab8:	00100613          	li	a2,1
80000abc:	00100593          	li	a1,1
80000ac0:	00040513          	mv	a0,s0
80000ac4:	16c010ef          	jal	ra,80001c30 <sd_copy>
80000ac8:	00050493          	mv	s1,a0
80000acc:	20051663          	bnez	a0,80000cd8 <get_partition_first_lba+0x2c4>
80000ad0:	000a2603          	lw	a2,0(s4)
80000ad4:	004a2583          	lw	a1,4(s4)
80000ad8:	80005537          	lui	a0,0x80005
80000adc:	dbc50513          	addi	a0,a0,-580 # 80004dbc <__heap_start+0xffffb96c>
80000ae0:	048a2483          	lw	s1,72(s4)
80000ae4:	a1dff0ef          	jal	ra,80000500 <printf>
80000ae8:	008a2583          	lw	a1,8(s4)
80000aec:	80005537          	lui	a0,0x80005
80000af0:	dec50513          	addi	a0,a0,-532 # 80004dec <__heap_start+0xffffb99c>
80000af4:	a0dff0ef          	jal	ra,80000500 <printf>
80000af8:	00ca2583          	lw	a1,12(s4)
80000afc:	80005537          	lui	a0,0x80005
80000b00:	dfc50513          	addi	a0,a0,-516 # 80004dfc <__heap_start+0xffffb9ac>
80000b04:	9fdff0ef          	jal	ra,80000500 <printf>
80000b08:	010a2583          	lw	a1,16(s4)
80000b0c:	80005537          	lui	a0,0x80005
80000b10:	e0850513          	addi	a0,a0,-504 # 80004e08 <__heap_start+0xffffb9b8>
80000b14:	9edff0ef          	jal	ra,80000500 <printf>
80000b18:	014a2583          	lw	a1,20(s4)
80000b1c:	80005537          	lui	a0,0x80005
80000b20:	e1c50513          	addi	a0,a0,-484 # 80004e1c <__heap_start+0xffffb9cc>
80000b24:	9ddff0ef          	jal	ra,80000500 <printf>
80000b28:	018a2583          	lw	a1,24(s4)
80000b2c:	80005537          	lui	a0,0x80005
80000b30:	e2c50513          	addi	a0,a0,-468 # 80004e2c <__heap_start+0xffffb9dc>
80000b34:	9cdff0ef          	jal	ra,80000500 <printf>
80000b38:	020a2583          	lw	a1,32(s4)
80000b3c:	80005537          	lui	a0,0x80005
80000b40:	e4050513          	addi	a0,a0,-448 # 80004e40 <__heap_start+0xffffb9f0>
80000b44:	9bdff0ef          	jal	ra,80000500 <printf>
80000b48:	048a2583          	lw	a1,72(s4)
80000b4c:	80005537          	lui	a0,0x80005
80000b50:	e5450513          	addi	a0,a0,-428 # 80004e54 <__heap_start+0xffffba04>
80000b54:	9adff0ef          	jal	ra,80000500 <printf>
80000b58:	050a2583          	lw	a1,80(s4)
80000b5c:	80005537          	lui	a0,0x80005
80000b60:	e7450513          	addi	a0,a0,-396 # 80004e74 <__heap_start+0xffffba24>
80000b64:	99dff0ef          	jal	ra,80000500 <printf>
80000b68:	054a2583          	lw	a1,84(s4)
80000b6c:	80005537          	lui	a0,0x80005
80000b70:	e9450513          	addi	a0,a0,-364 # 80004e94 <__heap_start+0xffffba44>
80000b74:	98dff0ef          	jal	ra,80000500 <printf>
80000b78:	00100613          	li	a2,1
80000b7c:	00048593          	mv	a1,s1
80000b80:	00040513          	mv	a0,s0
80000b84:	0ac010ef          	jal	ra,80001c30 <sd_copy>
80000b88:	00050b93          	mv	s7,a0
80000b8c:	1a051863          	bnez	a0,80000d3c <get_partition_first_lba+0x328>
80000b90:	080a0493          	addi	s1,s4,128
80000b94:	010a0913          	addi	s2,s4,16
80000b98:	020a0993          	addi	s3,s4,32
80000b9c:	80005db7          	lui	s11,0x80005
80000ba0:	80005d37          	lui	s10,0x80005
80000ba4:	80005437          	lui	s0,0x80005
80000ba8:	80005cb7          	lui	s9,0x80005
80000bac:	000b8593          	mv	a1,s7
80000bb0:	eb4d8513          	addi	a0,s11,-332 # 80004eb4 <__heap_start+0xffffba64>
80000bb4:	94dff0ef          	jal	ra,80000500 <printf>
80000bb8:	f8048c13          	addi	s8,s1,-128
80000bbc:	eccd0513          	addi	a0,s10,-308 # 80004ecc <__heap_start+0xffffba7c>
80000bc0:	000c0b13          	mv	s6,s8
80000bc4:	93dff0ef          	jal	ra,80000500 <printf>
80000bc8:	000c4583          	lbu	a1,0(s8)
80000bcc:	e7040513          	addi	a0,s0,-400 # 80004e70 <__heap_start+0xffffba20>
80000bd0:	001c0c13          	addi	s8,s8,1
80000bd4:	92dff0ef          	jal	ra,80000500 <printf>
80000bd8:	ff2c18e3          	bne	s8,s2,80000bc8 <get_partition_first_lba+0x1b4>
80000bdc:	ee4c8513          	addi	a0,s9,-284 # 80004ee4 <__heap_start+0xffffba94>
80000be0:	921ff0ef          	jal	ra,80000500 <printf>
80000be4:	00090c13          	mv	s8,s2
80000be8:	000c4583          	lbu	a1,0(s8)
80000bec:	e7040513          	addi	a0,s0,-400
80000bf0:	001c0c13          	addi	s8,s8,1
80000bf4:	90dff0ef          	jal	ra,80000500 <printf>
80000bf8:	ff3c18e3          	bne	s8,s3,80000be8 <get_partition_first_lba+0x1d4>
80000bfc:	020b2583          	lw	a1,32(s6)
80000c00:	800057b7          	lui	a5,0x80005
80000c04:	efc78513          	addi	a0,a5,-260 # 80004efc <__heap_start+0xffffbaac>
80000c08:	8f9ff0ef          	jal	ra,80000500 <printf>
80000c0c:	028b2583          	lw	a1,40(s6)
80000c10:	800057b7          	lui	a5,0x80005
80000c14:	f0c78513          	addi	a0,a5,-244 # 80004f0c <__heap_start+0xffffbabc>
80000c18:	8e9ff0ef          	jal	ra,80000500 <printf>
80000c1c:	030b2583          	lw	a1,48(s6)
80000c20:	800057b7          	lui	a5,0x80005
80000c24:	f1c78513          	addi	a0,a5,-228 # 80004f1c <__heap_start+0xffffbacc>
80000c28:	8d9ff0ef          	jal	ra,80000500 <printf>
80000c2c:	800057b7          	lui	a5,0x80005
80000c30:	f3078513          	addi	a0,a5,-208 # 80004f30 <__heap_start+0xffffbae0>
80000c34:	fb848c13          	addi	s8,s1,-72
80000c38:	8c9ff0ef          	jal	ra,80000500 <printf>
80000c3c:	000c4583          	lbu	a1,0(s8)
80000c40:	e7040513          	addi	a0,s0,-400
80000c44:	001c0c13          	addi	s8,s8,1
80000c48:	8b9ff0ef          	jal	ra,80000500 <printf>
80000c4c:	fe9c18e3          	bne	s8,s1,80000c3c <get_partition_first_lba+0x228>
80000c50:	800057b7          	lui	a5,0x80005
80000c54:	0e078513          	addi	a0,a5,224 # 800050e0 <__heap_start+0xffffbc90>
80000c58:	8a9ff0ef          	jal	ra,80000500 <printf>
80000c5c:	00100793          	li	a5,1
80000c60:	080c0493          	addi	s1,s8,128
80000c64:	08090913          	addi	s2,s2,128
80000c68:	08098993          	addi	s3,s3,128
80000c6c:	08fb9a63          	bne	s7,a5,80000d00 <get_partition_first_lba+0x2ec>
80000c70:	007a9a93          	slli	s5,s5,0x7
80000c74:	015a0a33          	add	s4,s4,s5
80000c78:	020a2503          	lw	a0,32(s4)
80000c7c:	024a2583          	lw	a1,36(s4)
80000c80:	03c12083          	lw	ra,60(sp)
80000c84:	03812403          	lw	s0,56(sp)
80000c88:	03412483          	lw	s1,52(sp)
80000c8c:	03012903          	lw	s2,48(sp)
80000c90:	02c12983          	lw	s3,44(sp)
80000c94:	02812a03          	lw	s4,40(sp)
80000c98:	02412a83          	lw	s5,36(sp)
80000c9c:	02012b03          	lw	s6,32(sp)
80000ca0:	01c12b83          	lw	s7,28(sp)
80000ca4:	01812c03          	lw	s8,24(sp)
80000ca8:	01412c83          	lw	s9,20(sp)
80000cac:	01012d03          	lw	s10,16(sp)
80000cb0:	00c12d83          	lw	s11,12(sp)
80000cb4:	04010113          	addi	sp,sp,64
80000cb8:	00008067          	ret
80000cbc:	00050593          	mv	a1,a0
80000cc0:	80005537          	lui	a0,0x80005
80000cc4:	d1050513          	addi	a0,a0,-752 # 80004d10 <__heap_start+0xffffb8c0>
80000cc8:	839ff0ef          	jal	ra,80000500 <printf>
80000ccc:	00000513          	li	a0,0
80000cd0:	00000593          	li	a1,0
80000cd4:	fadff06f          	j	80000c80 <get_partition_first_lba+0x26c>
80000cd8:	80005537          	lui	a0,0x80005
80000cdc:	da850513          	addi	a0,a0,-600 # 80004da8 <__heap_start+0xffffb958>
80000ce0:	821ff0ef          	jal	ra,80000500 <printf>
80000ce4:	00048593          	mv	a1,s1
80000ce8:	80005537          	lui	a0,0x80005
80000cec:	cf450513          	addi	a0,a0,-780 # 80004cf4 <__heap_start+0xffffb8a4>
80000cf0:	811ff0ef          	jal	ra,80000500 <printf>
80000cf4:	00000513          	li	a0,0
80000cf8:	00000593          	li	a1,0
80000cfc:	f85ff06f          	j	80000c80 <get_partition_first_lba+0x26c>
80000d00:	00100b93          	li	s7,1
80000d04:	ea9ff06f          	j	80000bac <get_partition_first_lba+0x198>
80000d08:	00050593          	mv	a1,a0
80000d0c:	80005537          	lui	a0,0x80005
80000d10:	d5850513          	addi	a0,a0,-680 # 80004d58 <__heap_start+0xffffb908>
80000d14:	fecff0ef          	jal	ra,80000500 <printf>
80000d18:	00000513          	li	a0,0
80000d1c:	00000593          	li	a1,0
80000d20:	f61ff06f          	j	80000c80 <get_partition_first_lba+0x26c>
80000d24:	80005537          	lui	a0,0x80005
80000d28:	d8050513          	addi	a0,a0,-640 # 80004d80 <__heap_start+0xffffb930>
80000d2c:	fd4ff0ef          	jal	ra,80000500 <printf>
80000d30:	00000513          	li	a0,0
80000d34:	00000593          	li	a1,0
80000d38:	f49ff06f          	j	80000c80 <get_partition_first_lba+0x26c>
80000d3c:	80005537          	lui	a0,0x80005
80000d40:	da850513          	addi	a0,a0,-600 # 80004da8 <__heap_start+0xffffb958>
80000d44:	fbcff0ef          	jal	ra,80000500 <printf>
80000d48:	000b8593          	mv	a1,s7
80000d4c:	f9dff06f          	j	80000ce8 <get_partition_first_lba+0x2d4>

80000d50 <long2short>:
80000d50:	00058793          	mv	a5,a1
80000d54:	00b58693          	addi	a3,a1,11
80000d58:	02000713          	li	a4,32
80000d5c:	00e78023          	sb	a4,0(a5)
80000d60:	00178793          	addi	a5,a5,1
80000d64:	fef69ce3          	bne	a3,a5,80000d5c <long2short+0xc>
80000d68:	00054683          	lbu	a3,0(a0)
80000d6c:	02e00793          	li	a5,46
80000d70:	00050613          	mv	a2,a0
80000d74:	02f68063          	beq	a3,a5,80000d94 <long2short+0x44>
80000d78:	0c068e63          	beqz	a3,80000e54 <long2short+0x104>
80000d7c:	02e00713          	li	a4,46
80000d80:	0080006f          	j	80000d88 <long2short+0x38>
80000d84:	00078c63          	beqz	a5,80000d9c <long2short+0x4c>
80000d88:	00160613          	addi	a2,a2,1
80000d8c:	00064783          	lbu	a5,0(a2)
80000d90:	fee79ae3          	bne	a5,a4,80000d84 <long2short+0x34>
80000d94:	00160613          	addi	a2,a2,1
80000d98:	00100793          	li	a5,1
80000d9c:	40a60f33          	sub	t5,a2,a0
80000da0:	40ff0f33          	sub	t5,t5,a5
80000da4:	00800793          	li	a5,8
80000da8:	000f0e13          	mv	t3,t5
80000dac:	01e7d463          	ble	t5,a5,80000db4 <long2short+0x64>
80000db0:	00800e13          	li	t3,8
80000db4:	03e05e63          	blez	t5,80000df0 <long2short+0xa0>
80000db8:	00000713          	li	a4,0
80000dbc:	01900e93          	li	t4,25
80000dc0:	0080006f          	j	80000dc8 <long2short+0x78>
80000dc4:	0008c683          	lbu	a3,0(a7)
80000dc8:	f9f68793          	addi	a5,a3,-97
80000dcc:	00e58833          	add	a6,a1,a4
80000dd0:	0ff7f793          	andi	a5,a5,255
80000dd4:	00170713          	addi	a4,a4,1
80000dd8:	00e508b3          	add	a7,a0,a4
80000ddc:	fe068313          	addi	t1,a3,-32
80000de0:	00fee463          	bltu	t4,a5,80000de8 <long2short+0x98>
80000de4:	0ff37693          	andi	a3,t1,255
80000de8:	00d80023          	sb	a3,0(a6)
80000dec:	fdc74ce3          	blt	a4,t3,80000dc4 <long2short+0x74>
80000df0:	00064783          	lbu	a5,0(a2)
80000df4:	04078063          	beqz	a5,80000e34 <long2short+0xe4>
80000df8:	00000693          	li	a3,0
80000dfc:	01900313          	li	t1,25
80000e00:	00300893          	li	a7,3
80000e04:	f9f78713          	addi	a4,a5,-97
80000e08:	00d58533          	add	a0,a1,a3
80000e0c:	0ff77713          	andi	a4,a4,255
80000e10:	00168693          	addi	a3,a3,1
80000e14:	00d60833          	add	a6,a2,a3
80000e18:	fe078e13          	addi	t3,a5,-32
80000e1c:	00e36463          	bltu	t1,a4,80000e24 <long2short+0xd4>
80000e20:	0ffe7793          	andi	a5,t3,255
80000e24:	00f50423          	sb	a5,8(a0)
80000e28:	01168663          	beq	a3,a7,80000e34 <long2short+0xe4>
80000e2c:	00084783          	lbu	a5,0(a6)
80000e30:	fc079ae3          	bnez	a5,80000e04 <long2short+0xb4>
80000e34:	00800793          	li	a5,8
80000e38:	01e7c463          	blt	a5,t5,80000e40 <long2short+0xf0>
80000e3c:	00008067          	ret
80000e40:	07e00793          	li	a5,126
80000e44:	00f58323          	sb	a5,6(a1)
80000e48:	03100793          	li	a5,49
80000e4c:	00f583a3          	sb	a5,7(a1)
80000e50:	00008067          	ret
80000e54:	00000793          	li	a5,0
80000e58:	f45ff06f          	j	80000d9c <long2short+0x4c>

80000e5c <read_file>:
80000e5c:	fa010113          	addi	sp,sp,-96
80000e60:	00b12423          	sw	a1,8(sp)
80000e64:	01410593          	addi	a1,sp,20
80000e68:	04112e23          	sw	ra,92(sp)
80000e6c:	03712e23          	sw	s7,60(sp)
80000e70:	04812c23          	sw	s0,88(sp)
80000e74:	04912a23          	sw	s1,84(sp)
80000e78:	05212823          	sw	s2,80(sp)
80000e7c:	05312623          	sw	s3,76(sp)
80000e80:	05412423          	sw	s4,72(sp)
80000e84:	05512223          	sw	s5,68(sp)
80000e88:	05612023          	sw	s6,64(sp)
80000e8c:	03812c23          	sw	s8,56(sp)
80000e90:	03912a23          	sw	s9,52(sp)
80000e94:	03a12823          	sw	s10,48(sp)
80000e98:	03b12623          	sw	s11,44(sp)
80000e9c:	eb5ff0ef          	jal	ra,80000d50 <long2short>
80000ea0:	00000513          	li	a0,0
80000ea4:	b71ff0ef          	jal	ra,80000a14 <get_partition_first_lba>
80000ea8:	00050b93          	mv	s7,a0
80000eac:	04051263          	bnez	a0,80000ef0 <read_file+0x94>
80000eb0:	05c12083          	lw	ra,92(sp)
80000eb4:	05812403          	lw	s0,88(sp)
80000eb8:	000b8513          	mv	a0,s7
80000ebc:	05412483          	lw	s1,84(sp)
80000ec0:	05012903          	lw	s2,80(sp)
80000ec4:	04c12983          	lw	s3,76(sp)
80000ec8:	04812a03          	lw	s4,72(sp)
80000ecc:	04412a83          	lw	s5,68(sp)
80000ed0:	04012b03          	lw	s6,64(sp)
80000ed4:	03c12b83          	lw	s7,60(sp)
80000ed8:	03812c03          	lw	s8,56(sp)
80000edc:	03412c83          	lw	s9,52(sp)
80000ee0:	03012d03          	lw	s10,48(sp)
80000ee4:	02c12d83          	lw	s11,44(sp)
80000ee8:	06010113          	addi	sp,sp,96
80000eec:	00008067          	ret
80000ef0:	800047b7          	lui	a5,0x80004
80000ef4:	00078493          	mv	s1,a5
80000ef8:	00050593          	mv	a1,a0
80000efc:	00100613          	li	a2,1
80000f00:	00078513          	mv	a0,a5
80000f04:	52d000ef          	jal	ra,80001c30 <sd_copy>
80000f08:	00c4c403          	lbu	s0,12(s1)
80000f0c:	00b4c703          	lbu	a4,11(s1)
80000f10:	00d4ca03          	lbu	s4,13(s1)
80000f14:	00841413          	slli	s0,s0,0x8
80000f18:	00e46433          	or	s0,s0,a4
80000f1c:	0104c983          	lbu	s3,16(s1)
80000f20:	0244a783          	lw	a5,36(s1)
80000f24:	03440d33          	mul	s10,s0,s4
80000f28:	00e4db03          	lhu	s6,14(s1)
80000f2c:	00945413          	srli	s0,s0,0x9
80000f30:	02f989b3          	mul	s3,s3,a5
80000f34:	000d0513          	mv	a0,s10
80000f38:	184000ef          	jal	ra,800010bc <malloc>
80000f3c:	00050a93          	mv	s5,a0
80000f40:	016989b3          	add	s3,s3,s6
80000f44:	028a0a33          	mul	s4,s4,s0
80000f48:	0c050c63          	beqz	a0,80001020 <read_file+0x1c4>
80000f4c:	fff00793          	li	a5,-1
80000f50:	10000c37          	lui	s8,0x10000
80000f54:	00f12823          	sw	a5,16(sp)
80000f58:	405d5d13          	srai	s10,s10,0x5
80000f5c:	00012623          	sw	zero,12(sp)
80000f60:	00200913          	li	s2,2
80000f64:	0e500d93          	li	s11,229
80000f68:	00f00493          	li	s1,15
80000f6c:	028b0b33          	mul	s6,s6,s0
80000f70:	ff7c0c13          	addi	s8,s8,-9 # ffffff7 <__heap_size+0xfffbff7>
80000f74:	03340433          	mul	s0,s0,s3
80000f78:	017b0b33          	add	s6,s6,s7
80000f7c:	017409b3          	add	s3,s0,s7
80000f80:	ffe90593          	addi	a1,s2,-2
80000f84:	034585b3          	mul	a1,a1,s4
80000f88:	000a0613          	mv	a2,s4
80000f8c:	000a8513          	mv	a0,s5
80000f90:	013585b3          	add	a1,a1,s3
80000f94:	49d000ef          	jal	ra,80001c30 <sd_copy>
80000f98:	040d0c63          	beqz	s10,80000ff0 <read_file+0x194>
80000f9c:	000a8413          	mv	s0,s5
80000fa0:	00000c93          	li	s9,0
80000fa4:	00044703          	lbu	a4,0(s0)
80000fa8:	03b70063          	beq	a4,s11,80000fc8 <read_file+0x16c>
80000fac:	00b44703          	lbu	a4,11(s0)
80000fb0:	00040513          	mv	a0,s0
80000fb4:	00b00613          	li	a2,11
80000fb8:	01410593          	addi	a1,sp,20
80000fbc:	00970663          	beq	a4,s1,80000fc8 <read_file+0x16c>
80000fc0:	534000ef          	jal	ra,800014f4 <strncmp>
80000fc4:	02050e63          	beqz	a0,80001000 <read_file+0x1a4>
80000fc8:	001c8c93          	addi	s9,s9,1
80000fcc:	02040413          	addi	s0,s0,32
80000fd0:	fd9d1ae3          	bne	s10,s9,80000fa4 <read_file+0x148>
80000fd4:	019d0e63          	beq	s10,s9,80000ff0 <read_file+0x194>
80000fd8:	00090513          	mv	a0,s2
80000fdc:	000b0613          	mv	a2,s6
80000fe0:	01010593          	addi	a1,sp,16
80000fe4:	ffcff0ef          	jal	ra,800007e0 <get_next_cluster>
80000fe8:	00050913          	mv	s2,a0
80000fec:	f8ac7ae3          	bleu	a0,s8,80000f80 <read_file+0x124>
80000ff0:	000a8513          	mv	a0,s5
80000ff4:	1f8000ef          	jal	ra,800011ec <free>
80000ff8:	00c12b83          	lw	s7,12(sp)
80000ffc:	eb5ff06f          	j	80000eb0 <read_file+0x54>
80001000:	00812503          	lw	a0,8(sp)
80001004:	800047b7          	lui	a5,0x80004
80001008:	00040693          	mv	a3,s0
8000100c:	000b8613          	mv	a2,s7
80001010:	00078593          	mv	a1,a5
80001014:	855ff0ef          	jal	ra,80000868 <copy_file>
80001018:	00a12623          	sw	a0,12(sp)
8000101c:	fb9ff06f          	j	80000fd4 <read_file+0x178>
80001020:	80005537          	lui	a0,0x80005
80001024:	f3c50513          	addi	a0,a0,-196 # 80004f3c <__heap_start+0xffffbaec>
80001028:	cd8ff0ef          	jal	ra,80000500 <printf>
8000102c:	00000b93          	li	s7,0
80001030:	e81ff06f          	j	80000eb0 <read_file+0x54>

80001034 <exit>:
80001034:	fe010113          	addi	sp,sp,-32
80001038:	00112e23          	sw	ra,28(sp)
8000103c:	00812c23          	sw	s0,24(sp)
80001040:	02010413          	addi	s0,sp,32
80001044:	fea42623          	sw	a0,-20(s0)
80001048:	fec42583          	lw	a1,-20(s0)
8000104c:	800057b7          	lui	a5,0x80005
80001050:	f5878513          	addi	a0,a5,-168 # 80004f58 <__heap_start+0xffffbb08>
80001054:	cacff0ef          	jal	ra,80000500 <printf>
80001058:	800057b7          	lui	a5,0x80005
8000105c:	f8078513          	addi	a0,a5,-128 # 80004f80 <__heap_start+0xffffbb30>
80001060:	ca0ff0ef          	jal	ra,80000500 <printf>
80001064:	800057b7          	lui	a5,0x80005
80001068:	fc078513          	addi	a0,a5,-64 # 80004fc0 <__heap_start+0xffffbb70>
8000106c:	c94ff0ef          	jal	ra,80000500 <printf>
80001070:	800057b7          	lui	a5,0x80005
80001074:	fec78513          	addi	a0,a5,-20 # 80004fec <__heap_start+0xffffbb9c>
80001078:	c88ff0ef          	jal	ra,80000500 <printf>
8000107c:	0000006f          	j	8000107c <exit+0x48>

80001080 <srand>:
80001080:	800057b7          	lui	a5,0x80005
80001084:	24a7a023          	sw	a0,576(a5) # 80005240 <__heap_start+0xffffbdf0>
80001088:	00008067          	ret

8000108c <rand>:
8000108c:	800056b7          	lui	a3,0x80005
80001090:	2406a783          	lw	a5,576(a3) # 80005240 <__heap_start+0xffffbdf0>
80001094:	00034737          	lui	a4,0x34
80001098:	3fd70713          	addi	a4,a4,1021 # 343fd <__heap_size+0x303fd>
8000109c:	02e787b3          	mul	a5,a5,a4
800010a0:	0026a737          	lui	a4,0x26a
800010a4:	ec370713          	addi	a4,a4,-317 # 269ec3 <__heap_size+0x265ec3>
800010a8:	00e787b3          	add	a5,a5,a4
800010ac:	00179513          	slli	a0,a5,0x1
800010b0:	24f6a023          	sw	a5,576(a3)
800010b4:	01155513          	srli	a0,a0,0x11
800010b8:	00008067          	ret

800010bc <malloc>:
800010bc:	800058b7          	lui	a7,0x80005
800010c0:	80005737          	lui	a4,0x80005
800010c4:	2488a783          	lw	a5,584(a7) # 80005248 <__heap_start+0xffffbdf8>
800010c8:	24472583          	lw	a1,580(a4) # 80005244 <__heap_start+0xffffbdf4>
800010cc:	0ab78063          	beq	a5,a1,8000116c <malloc+0xb0>
800010d0:	00078813          	mv	a6,a5
800010d4:	02b7f063          	bleu	a1,a5,800010f4 <malloc+0x38>
800010d8:	0007a703          	lw	a4,0(a5)
800010dc:	00177693          	andi	a3,a4,1
800010e0:	40f70633          	sub	a2,a4,a5
800010e4:	00069463          	bnez	a3,800010ec <malloc+0x30>
800010e8:	04c56063          	bltu	a0,a2,80001128 <malloc+0x6c>
800010ec:	ffe77793          	andi	a5,a4,-2
800010f0:	feb7e4e3          	bltu	a5,a1,800010d8 <malloc+0x1c>
800010f4:	800047b7          	lui	a5,0x80004
800010f8:	a247a783          	lw	a5,-1500(a5) # 80003a24 <__heap_start+0xffffa5d4>
800010fc:	0307f063          	bleu	a6,a5,8000111c <malloc+0x60>
80001100:	0007a703          	lw	a4,0(a5)
80001104:	00177613          	andi	a2,a4,1
80001108:	40f706b3          	sub	a3,a4,a5
8000110c:	00061463          	bnez	a2,80001114 <malloc+0x58>
80001110:	08d56c63          	bltu	a0,a3,800011a8 <malloc+0xec>
80001114:	ffe77793          	andi	a5,a4,-2
80001118:	ff07e4e3          	bltu	a5,a6,80001100 <malloc+0x44>
8000111c:	00000593          	li	a1,0
80001120:	00058513          	mv	a0,a1
80001124:	00008067          	ret
80001128:	ffe7f613          	andi	a2,a5,-2
8000112c:	00357813          	andi	a6,a0,3
80001130:	00460593          	addi	a1,a2,4
80001134:	06081463          	bnez	a6,8000119c <malloc+0xe0>
80001138:	00450813          	addi	a6,a0,4
8000113c:	00d80833          	add	a6,a6,a3
80001140:	ffc87813          	andi	a6,a6,-4
80001144:	01078833          	add	a6,a5,a6
80001148:	2508a423          	sw	a6,584(a7)
8000114c:	00e80463          	beq	a6,a4,80001154 <malloc+0x98>
80001150:	00e82023          	sw	a4,0(a6)
80001154:	00186713          	ori	a4,a6,1
80001158:	00e7a023          	sw	a4,0(a5)
8000115c:	ffc00793          	li	a5,-4
80001160:	f8f60ae3          	beq	a2,a5,800010f4 <malloc+0x38>
80001164:	00058513          	mv	a0,a1
80001168:	00008067          	ret
8000116c:	800047b7          	lui	a5,0x80004
80001170:	800046b7          	lui	a3,0x80004
80001174:	a247a783          	lw	a5,-1500(a5) # 80003a24 <__heap_start+0xffffa5d4>
80001178:	a206a583          	lw	a1,-1504(a3) # 80003a20 <__heap_start+0xffffa5d0>
8000117c:	24f8a423          	sw	a5,584(a7)
80001180:	00b785b3          	add	a1,a5,a1
80001184:	ff05f593          	andi	a1,a1,-16
80001188:	24b72223          	sw	a1,580(a4)
8000118c:	00b7a023          	sw	a1,0(a5)
80001190:	00078813          	mv	a6,a5
80001194:	f4b7e2e3          	bltu	a5,a1,800010d8 <malloc+0x1c>
80001198:	f85ff06f          	j	8000111c <malloc+0x60>
8000119c:	00400693          	li	a3,4
800011a0:	410686b3          	sub	a3,a3,a6
800011a4:	f95ff06f          	j	80001138 <malloc+0x7c>
800011a8:	ffe7f593          	andi	a1,a5,-2
800011ac:	00357813          	andi	a6,a0,3
800011b0:	00458593          	addi	a1,a1,4
800011b4:	00080663          	beqz	a6,800011c0 <malloc+0x104>
800011b8:	00400693          	li	a3,4
800011bc:	41068633          	sub	a2,a3,a6
800011c0:	00450693          	addi	a3,a0,4
800011c4:	00c686b3          	add	a3,a3,a2
800011c8:	ffc6f693          	andi	a3,a3,-4
800011cc:	00d786b3          	add	a3,a5,a3
800011d0:	24d8a423          	sw	a3,584(a7)
800011d4:	00e68463          	beq	a3,a4,800011dc <malloc+0x120>
800011d8:	00e6a023          	sw	a4,0(a3)
800011dc:	0016e693          	ori	a3,a3,1
800011e0:	00d7a023          	sw	a3,0(a5)
800011e4:	00058513          	mv	a0,a1
800011e8:	00008067          	ret

800011ec <free>:
800011ec:	ffc52783          	lw	a5,-4(a0)
800011f0:	ffe7f793          	andi	a5,a5,-2
800011f4:	fef52e23          	sw	a5,-4(a0)
800011f8:	0007a783          	lw	a5,0(a5)
800011fc:	0017f713          	andi	a4,a5,1
80001200:	00071a63          	bnez	a4,80001214 <free+0x28>
80001204:	ffc50713          	addi	a4,a0,-4
80001208:	fef52e23          	sw	a5,-4(a0)
8000120c:	800057b7          	lui	a5,0x80005
80001210:	24e7a423          	sw	a4,584(a5) # 80005248 <__heap_start+0xffffbdf8>
80001214:	00008067          	ret

80001218 <calloc>:
80001218:	ff010113          	addi	sp,sp,-16
8000121c:	00912423          	sw	s1,8(sp)
80001220:	02b504b3          	mul	s1,a0,a1
80001224:	00112623          	sw	ra,12(sp)
80001228:	01212223          	sw	s2,4(sp)
8000122c:	00048513          	mv	a0,s1
80001230:	e8dff0ef          	jal	ra,800010bc <malloc>
80001234:	00048613          	mv	a2,s1
80001238:	00000593          	li	a1,0
8000123c:	00050913          	mv	s2,a0
80001240:	4bc000ef          	jal	ra,800016fc <memset>
80001244:	00c12083          	lw	ra,12(sp)
80001248:	00090513          	mv	a0,s2
8000124c:	00812483          	lw	s1,8(sp)
80001250:	00412903          	lw	s2,4(sp)
80001254:	01010113          	addi	sp,sp,16
80001258:	00008067          	ret

8000125c <atoi>:
8000125c:	00050793          	mv	a5,a0
80001260:	02000693          	li	a3,32
80001264:	00900613          	li	a2,9
80001268:	0007c703          	lbu	a4,0(a5)
8000126c:	00d70463          	beq	a4,a3,80001274 <atoi+0x18>
80001270:	00c71663          	bne	a4,a2,8000127c <atoi+0x20>
80001274:	00178793          	addi	a5,a5,1
80001278:	ff1ff06f          	j	80001268 <atoi+0xc>
8000127c:	02d00693          	li	a3,45
80001280:	00100893          	li	a7,1
80001284:	00d71863          	bne	a4,a3,80001294 <atoi+0x38>
80001288:	0017c703          	lbu	a4,1(a5)
8000128c:	fff00893          	li	a7,-1
80001290:	00178793          	addi	a5,a5,1
80001294:	fd070713          	addi	a4,a4,-48
80001298:	0ff77613          	andi	a2,a4,255
8000129c:	00900693          	li	a3,9
800012a0:	00000513          	li	a0,0
800012a4:	04c6ec63          	bltu	a3,a2,800012fc <atoi+0xa0>
800012a8:	0017c603          	lbu	a2,1(a5)
800012ac:	00178793          	addi	a5,a5,1
800012b0:	04060063          	beqz	a2,800012f0 <atoi+0x94>
800012b4:	fd060593          	addi	a1,a2,-48
800012b8:	0ff5f613          	andi	a2,a1,255
800012bc:	00900813          	li	a6,9
800012c0:	00c6f663          	bleu	a2,a3,800012cc <atoi+0x70>
800012c4:	03c0006f          	j	80001300 <atoi+0xa4>
800012c8:	02d86863          	bltu	a6,a3,800012f8 <atoi+0x9c>
800012cc:	00178793          	addi	a5,a5,1
800012d0:	00271693          	slli	a3,a4,0x2
800012d4:	0007c603          	lbu	a2,0(a5)
800012d8:	00e68733          	add	a4,a3,a4
800012dc:	00171713          	slli	a4,a4,0x1
800012e0:	00e58733          	add	a4,a1,a4
800012e4:	fd060593          	addi	a1,a2,-48
800012e8:	0ff5f693          	andi	a3,a1,255
800012ec:	fc061ee3          	bnez	a2,800012c8 <atoi+0x6c>
800012f0:	02e88533          	mul	a0,a7,a4
800012f4:	00008067          	ret
800012f8:	00000513          	li	a0,0
800012fc:	00008067          	ret
80001300:	00008067          	ret

80001304 <abs>:
80001304:	41f55793          	srai	a5,a0,0x1f
80001308:	00a7c533          	xor	a0,a5,a0
8000130c:	40f50533          	sub	a0,a0,a5
80001310:	00008067          	ret

80001314 <strcpy>:
80001314:	00a5e733          	or	a4,a1,a0
80001318:	00377713          	andi	a4,a4,3
8000131c:	00050793          	mv	a5,a0
80001320:	04071a63          	bnez	a4,80001374 <strcpy+0x60>
80001324:	0005a683          	lw	a3,0(a1)
80001328:	feff08b7          	lui	a7,0xfeff0
8000132c:	eff88893          	addi	a7,a7,-257 # fefefeff <__heap_start+0x7efe6aaf>
80001330:	011687b3          	add	a5,a3,a7
80001334:	fff6c713          	not	a4,a3
80001338:	80808837          	lui	a6,0x80808
8000133c:	00e7f7b3          	and	a5,a5,a4
80001340:	08080813          	addi	a6,a6,128 # 80808080 <__heap_start+0x7fec30>
80001344:	0107f7b3          	and	a5,a5,a6
80001348:	04079263          	bnez	a5,8000138c <strcpy+0x78>
8000134c:	00050793          	mv	a5,a0
80001350:	00478793          	addi	a5,a5,4
80001354:	00458593          	addi	a1,a1,4
80001358:	fed7ae23          	sw	a3,-4(a5)
8000135c:	0005a683          	lw	a3,0(a1)
80001360:	01168733          	add	a4,a3,a7
80001364:	fff6c613          	not	a2,a3
80001368:	00c77733          	and	a4,a4,a2
8000136c:	01077733          	and	a4,a4,a6
80001370:	fe0700e3          	beqz	a4,80001350 <strcpy+0x3c>
80001374:	00158593          	addi	a1,a1,1
80001378:	fff5c703          	lbu	a4,-1(a1)
8000137c:	00178793          	addi	a5,a5,1
80001380:	fee78fa3          	sb	a4,-1(a5)
80001384:	fe0718e3          	bnez	a4,80001374 <strcpy+0x60>
80001388:	00008067          	ret
8000138c:	00050793          	mv	a5,a0
80001390:	fe5ff06f          	j	80001374 <strcpy+0x60>

80001394 <strcmp>:
80001394:	00b567b3          	or	a5,a0,a1
80001398:	0037f793          	andi	a5,a5,3
8000139c:	06079063          	bnez	a5,800013fc <strcmp+0x68>
800013a0:	00052703          	lw	a4,0(a0)
800013a4:	0005a783          	lw	a5,0(a1)
800013a8:	04e79a63          	bne	a5,a4,800013fc <strcmp+0x68>
800013ac:	feff08b7          	lui	a7,0xfeff0
800013b0:	eff88893          	addi	a7,a7,-257 # fefefeff <__heap_start+0x7efe6aaf>
800013b4:	01178733          	add	a4,a5,a7
800013b8:	80808837          	lui	a6,0x80808
800013bc:	fff7c793          	not	a5,a5
800013c0:	00f777b3          	and	a5,a4,a5
800013c4:	08080813          	addi	a6,a6,128 # 80808080 <__heap_start+0x7fec30>
800013c8:	0107f7b3          	and	a5,a5,a6
800013cc:	00078663          	beqz	a5,800013d8 <strcmp+0x44>
800013d0:	05c0006f          	j	8000142c <strcmp+0x98>
800013d4:	04079c63          	bnez	a5,8000142c <strcmp+0x98>
800013d8:	00450513          	addi	a0,a0,4
800013dc:	00052703          	lw	a4,0(a0)
800013e0:	00458593          	addi	a1,a1,4
800013e4:	0005a683          	lw	a3,0(a1)
800013e8:	011707b3          	add	a5,a4,a7
800013ec:	fff74613          	not	a2,a4
800013f0:	00c7f7b3          	and	a5,a5,a2
800013f4:	0107f7b3          	and	a5,a5,a6
800013f8:	fcd70ee3          	beq	a4,a3,800013d4 <strcmp+0x40>
800013fc:	00054783          	lbu	a5,0(a0)
80001400:	0005c703          	lbu	a4,0(a1)
80001404:	00078e63          	beqz	a5,80001420 <strcmp+0x8c>
80001408:	00e79e63          	bne	a5,a4,80001424 <strcmp+0x90>
8000140c:	00150513          	addi	a0,a0,1
80001410:	00054783          	lbu	a5,0(a0)
80001414:	00158593          	addi	a1,a1,1
80001418:	0005c703          	lbu	a4,0(a1)
8000141c:	fe0796e3          	bnez	a5,80001408 <strcmp+0x74>
80001420:	00000793          	li	a5,0
80001424:	40e78533          	sub	a0,a5,a4
80001428:	00008067          	ret
8000142c:	00000513          	li	a0,0
80001430:	00008067          	ret

80001434 <strncpy>:
80001434:	00a5e733          	or	a4,a1,a0
80001438:	00377713          	andi	a4,a4,3
8000143c:	00050793          	mv	a5,a0
80001440:	06071663          	bnez	a4,800014ac <strncpy+0x78>
80001444:	0005a683          	lw	a3,0(a1)
80001448:	feff0337          	lui	t1,0xfeff0
8000144c:	eff30313          	addi	t1,t1,-257 # fefefeff <__heap_start+0x7efe6aaf>
80001450:	fff6c793          	not	a5,a3
80001454:	00668733          	add	a4,a3,t1
80001458:	808088b7          	lui	a7,0x80808
8000145c:	00e7f7b3          	and	a5,a5,a4
80001460:	08088893          	addi	a7,a7,128 # 80808080 <__heap_start+0x7fec30>
80001464:	0117f7b3          	and	a5,a5,a7
80001468:	08079263          	bnez	a5,800014ec <strncpy+0xb8>
8000146c:	00400793          	li	a5,4
80001470:	06c7fe63          	bleu	a2,a5,800014ec <strncpy+0xb8>
80001474:	00050793          	mv	a5,a0
80001478:	00400e13          	li	t3,4
8000147c:	0080006f          	j	80001484 <strncpy+0x50>
80001480:	02ce7663          	bleu	a2,t3,800014ac <strncpy+0x78>
80001484:	00478793          	addi	a5,a5,4
80001488:	fed7ae23          	sw	a3,-4(a5)
8000148c:	00458593          	addi	a1,a1,4
80001490:	0005a683          	lw	a3,0(a1)
80001494:	ffc60613          	addi	a2,a2,-4
80001498:	00668733          	add	a4,a3,t1
8000149c:	fff6c813          	not	a6,a3
800014a0:	01077733          	and	a4,a4,a6
800014a4:	01177733          	and	a4,a4,a7
800014a8:	fc070ce3          	beqz	a4,80001480 <strncpy+0x4c>
800014ac:	00160693          	addi	a3,a2,1
800014b0:	00b686b3          	add	a3,a3,a1
800014b4:	00b60633          	add	a2,a2,a1
800014b8:	0080006f          	j	800014c0 <strncpy+0x8c>
800014bc:	02d58463          	beq	a1,a3,800014e4 <strncpy+0xb0>
800014c0:	40b60833          	sub	a6,a2,a1
800014c4:	00158593          	addi	a1,a1,1
800014c8:	fff5c703          	lbu	a4,-1(a1)
800014cc:	00178793          	addi	a5,a5,1
800014d0:	fee78fa3          	sb	a4,-1(a5)
800014d4:	fe0714e3          	bnez	a4,800014bc <strncpy+0x88>
800014d8:	fff00713          	li	a4,-1
800014dc:	00e80463          	beq	a6,a4,800014e4 <strncpy+0xb0>
800014e0:	00008067          	ret
800014e4:	00078023          	sb	zero,0(a5)
800014e8:	00008067          	ret
800014ec:	00050793          	mv	a5,a0
800014f0:	fbdff06f          	j	800014ac <strncpy+0x78>

800014f4 <strncmp>:
800014f4:	00b567b3          	or	a5,a0,a1
800014f8:	0037f793          	andi	a5,a5,3
800014fc:	06079a63          	bnez	a5,80001570 <strncmp+0x7c>
80001500:	00052703          	lw	a4,0(a0)
80001504:	0005a783          	lw	a5,0(a1)
80001508:	06e79463          	bne	a5,a4,80001570 <strncmp+0x7c>
8000150c:	00400713          	li	a4,4
80001510:	06c77063          	bleu	a2,a4,80001570 <strncmp+0x7c>
80001514:	feff0337          	lui	t1,0xfeff0
80001518:	eff30313          	addi	t1,t1,-257 # fefefeff <__heap_start+0x7efe6aaf>
8000151c:	00678733          	add	a4,a5,t1
80001520:	808088b7          	lui	a7,0x80808
80001524:	fff7c793          	not	a5,a5
80001528:	00f777b3          	and	a5,a4,a5
8000152c:	08088893          	addi	a7,a7,128 # 80808080 <__heap_start+0x7fec30>
80001530:	0117f7b3          	and	a5,a5,a7
80001534:	08079663          	bnez	a5,800015c0 <strncmp+0xcc>
80001538:	00400e13          	li	t3,4
8000153c:	00c0006f          	j	80001548 <strncmp+0x54>
80001540:	02ce7863          	bleu	a2,t3,80001570 <strncmp+0x7c>
80001544:	06079e63          	bnez	a5,800015c0 <strncmp+0xcc>
80001548:	00450513          	addi	a0,a0,4
8000154c:	00052703          	lw	a4,0(a0)
80001550:	00458593          	addi	a1,a1,4
80001554:	0005a683          	lw	a3,0(a1)
80001558:	006707b3          	add	a5,a4,t1
8000155c:	fff74813          	not	a6,a4
80001560:	0107f7b3          	and	a5,a5,a6
80001564:	ffc60613          	addi	a2,a2,-4
80001568:	0117f7b3          	and	a5,a5,a7
8000156c:	fcd70ae3          	beq	a4,a3,80001540 <strncmp+0x4c>
80001570:	fff60613          	addi	a2,a2,-1
80001574:	00054703          	lbu	a4,0(a0)
80001578:	0005c803          	lbu	a6,0(a1)
8000157c:	02060e63          	beqz	a2,800015b8 <strncmp+0xc4>
80001580:	02070c63          	beqz	a4,800015b8 <strncmp+0xc4>
80001584:	00150793          	addi	a5,a0,1
80001588:	00c50633          	add	a2,a0,a2
8000158c:	01070e63          	beq	a4,a6,800015a8 <strncmp+0xb4>
80001590:	0280006f          	j	800015b8 <strncmp+0xc4>
80001594:	02070063          	beqz	a4,800015b4 <strncmp+0xc0>
80001598:	0006c803          	lbu	a6,0(a3)
8000159c:	00178793          	addi	a5,a5,1
800015a0:	00068593          	mv	a1,a3
800015a4:	00e81a63          	bne	a6,a4,800015b8 <strncmp+0xc4>
800015a8:	0007c703          	lbu	a4,0(a5)
800015ac:	00158693          	addi	a3,a1,1
800015b0:	fef612e3          	bne	a2,a5,80001594 <strncmp+0xa0>
800015b4:	0015c803          	lbu	a6,1(a1)
800015b8:	41070533          	sub	a0,a4,a6
800015bc:	00008067          	ret
800015c0:	00000513          	li	a0,0
800015c4:	00008067          	ret

800015c8 <memcpy>:
800015c8:	00a5e733          	or	a4,a1,a0
800015cc:	00377713          	andi	a4,a4,3
800015d0:	00050793          	mv	a5,a0
800015d4:	06071663          	bnez	a4,80001640 <memcpy+0x78>
800015d8:	0005a683          	lw	a3,0(a1)
800015dc:	feff0337          	lui	t1,0xfeff0
800015e0:	eff30313          	addi	t1,t1,-257 # fefefeff <__heap_start+0x7efe6aaf>
800015e4:	fff6c793          	not	a5,a3
800015e8:	00668733          	add	a4,a3,t1
800015ec:	808088b7          	lui	a7,0x80808
800015f0:	00e7f7b3          	and	a5,a5,a4
800015f4:	08088893          	addi	a7,a7,128 # 80808080 <__heap_start+0x7fec30>
800015f8:	0117f7b3          	and	a5,a5,a7
800015fc:	08079263          	bnez	a5,80001680 <memcpy+0xb8>
80001600:	00400793          	li	a5,4
80001604:	06c7fe63          	bleu	a2,a5,80001680 <memcpy+0xb8>
80001608:	00050793          	mv	a5,a0
8000160c:	00400e13          	li	t3,4
80001610:	0080006f          	j	80001618 <memcpy+0x50>
80001614:	02ce7663          	bleu	a2,t3,80001640 <memcpy+0x78>
80001618:	00478793          	addi	a5,a5,4
8000161c:	fed7ae23          	sw	a3,-4(a5)
80001620:	00458593          	addi	a1,a1,4
80001624:	0005a683          	lw	a3,0(a1)
80001628:	ffc60613          	addi	a2,a2,-4
8000162c:	00668733          	add	a4,a3,t1
80001630:	fff6c813          	not	a6,a3
80001634:	01077733          	and	a4,a4,a6
80001638:	01177733          	and	a4,a4,a7
8000163c:	fc070ce3          	beqz	a4,80001614 <memcpy+0x4c>
80001640:	00160693          	addi	a3,a2,1
80001644:	00b686b3          	add	a3,a3,a1
80001648:	00b60633          	add	a2,a2,a1
8000164c:	0080006f          	j	80001654 <memcpy+0x8c>
80001650:	02d58463          	beq	a1,a3,80001678 <memcpy+0xb0>
80001654:	40b60833          	sub	a6,a2,a1
80001658:	00158593          	addi	a1,a1,1
8000165c:	fff5c703          	lbu	a4,-1(a1)
80001660:	00178793          	addi	a5,a5,1
80001664:	fee78fa3          	sb	a4,-1(a5)
80001668:	fe0714e3          	bnez	a4,80001650 <memcpy+0x88>
8000166c:	fff00713          	li	a4,-1
80001670:	00e80463          	beq	a6,a4,80001678 <memcpy+0xb0>
80001674:	00008067          	ret
80001678:	00078023          	sb	zero,0(a5)
8000167c:	00008067          	ret
80001680:	00050793          	mv	a5,a0
80001684:	fbdff06f          	j	80001640 <memcpy+0x78>

80001688 <memmove>:
80001688:	ff010113          	addi	sp,sp,-16
8000168c:	00812423          	sw	s0,8(sp)
80001690:	00112623          	sw	ra,12(sp)
80001694:	00050413          	mv	s0,a0
80001698:	04b56463          	bltu	a0,a1,800016e0 <memmove+0x58>
8000169c:	00c587b3          	add	a5,a1,a2
800016a0:	04a7e063          	bltu	a5,a0,800016e0 <memmove+0x58>
800016a4:	04060263          	beqz	a2,800016e8 <memmove+0x60>
800016a8:	fff60613          	addi	a2,a2,-1
800016ac:	00c507b3          	add	a5,a0,a2
800016b0:	00c585b3          	add	a1,a1,a2
800016b4:	fff50693          	addi	a3,a0,-1
800016b8:	fff58593          	addi	a1,a1,-1
800016bc:	0015c703          	lbu	a4,1(a1)
800016c0:	fff78793          	addi	a5,a5,-1
800016c4:	00e780a3          	sb	a4,1(a5)
800016c8:	fed798e3          	bne	a5,a3,800016b8 <memmove+0x30>
800016cc:	00040513          	mv	a0,s0
800016d0:	00c12083          	lw	ra,12(sp)
800016d4:	00812403          	lw	s0,8(sp)
800016d8:	01010113          	addi	sp,sp,16
800016dc:	00008067          	ret
800016e0:	00040513          	mv	a0,s0
800016e4:	ee5ff0ef          	jal	ra,800015c8 <memcpy>
800016e8:	00040513          	mv	a0,s0
800016ec:	00c12083          	lw	ra,12(sp)
800016f0:	00812403          	lw	s0,8(sp)
800016f4:	01010113          	addi	sp,sp,16
800016f8:	00008067          	ret

800016fc <memset>:
800016fc:	0ff5f593          	andi	a1,a1,255
80001700:	00c50733          	add	a4,a0,a2
80001704:	00050793          	mv	a5,a0
80001708:	00060863          	beqz	a2,80001718 <memset+0x1c>
8000170c:	00178793          	addi	a5,a5,1
80001710:	feb78fa3          	sb	a1,-1(a5)
80001714:	fee79ce3          	bne	a5,a4,8000170c <memset+0x10>
80001718:	00008067          	ret

8000171c <strlen>:
8000171c:	00054783          	lbu	a5,0(a0)
80001720:	02078063          	beqz	a5,80001740 <strlen+0x24>
80001724:	00000793          	li	a5,0
80001728:	00178793          	addi	a5,a5,1
8000172c:	00f50733          	add	a4,a0,a5
80001730:	00074703          	lbu	a4,0(a4)
80001734:	fe071ae3          	bnez	a4,80001728 <strlen+0xc>
80001738:	00078513          	mv	a0,a5
8000173c:	00008067          	ret
80001740:	00000793          	li	a5,0
80001744:	00078513          	mv	a0,a5
80001748:	00008067          	ret

8000174c <strcat>:
8000174c:	00054783          	lbu	a5,0(a0)
80001750:	02078c63          	beqz	a5,80001788 <strcat+0x3c>
80001754:	00050793          	mv	a5,a0
80001758:	00178793          	addi	a5,a5,1
8000175c:	0007c703          	lbu	a4,0(a5)
80001760:	fe071ce3          	bnez	a4,80001758 <strcat+0xc>
80001764:	0005c703          	lbu	a4,0(a1)
80001768:	00070c63          	beqz	a4,80001780 <strcat+0x34>
8000176c:	00178793          	addi	a5,a5,1
80001770:	00158593          	addi	a1,a1,1
80001774:	fee78fa3          	sb	a4,-1(a5)
80001778:	0005c703          	lbu	a4,0(a1)
8000177c:	fe0718e3          	bnez	a4,8000176c <strcat+0x20>
80001780:	00078023          	sb	zero,0(a5)
80001784:	00008067          	ret
80001788:	00050793          	mv	a5,a0
8000178c:	fedff06f          	j	80001778 <strcat+0x2c>

80001790 <strncat>:
80001790:	00054783          	lbu	a5,0(a0)
80001794:	04078463          	beqz	a5,800017dc <strncat+0x4c>
80001798:	00050793          	mv	a5,a0
8000179c:	00178793          	addi	a5,a5,1
800017a0:	0007c703          	lbu	a4,0(a5)
800017a4:	fe071ce3          	bnez	a4,8000179c <strncat+0xc>
800017a8:	0005c703          	lbu	a4,0(a1)
800017ac:	02070463          	beqz	a4,800017d4 <strncat+0x44>
800017b0:	02060263          	beqz	a2,800017d4 <strncat+0x44>
800017b4:	00c58633          	add	a2,a1,a2
800017b8:	0080006f          	j	800017c0 <strncat+0x30>
800017bc:	00b60c63          	beq	a2,a1,800017d4 <strncat+0x44>
800017c0:	00178793          	addi	a5,a5,1
800017c4:	00158593          	addi	a1,a1,1
800017c8:	fee78fa3          	sb	a4,-1(a5)
800017cc:	0005c703          	lbu	a4,0(a1)
800017d0:	fe0716e3          	bnez	a4,800017bc <strncat+0x2c>
800017d4:	00078023          	sb	zero,0(a5)
800017d8:	00008067          	ret
800017dc:	00050793          	mv	a5,a0
800017e0:	fc9ff06f          	j	800017a8 <strncat+0x18>

800017e4 <sd_dummy>:
800017e4:	0ff00513          	li	a0,255
800017e8:	0a10006f          	j	80002088 <spi_txrx>

800017ec <sd_cmd>:
800017ec:	ff010113          	addi	sp,sp,-16
800017f0:	01212023          	sw	s2,0(sp)
800017f4:	00050913          	mv	s2,a0
800017f8:	0ff00513          	li	a0,255
800017fc:	00112623          	sw	ra,12(sp)
80001800:	00812423          	sw	s0,8(sp)
80001804:	00912223          	sw	s1,4(sp)
80001808:	00058413          	mv	s0,a1
8000180c:	00060493          	mv	s1,a2
80001810:	079000ef          	jal	ra,80002088 <spi_txrx>
80001814:	04096513          	ori	a0,s2,64
80001818:	071000ef          	jal	ra,80002088 <spi_txrx>
8000181c:	01845513          	srli	a0,s0,0x18
80001820:	069000ef          	jal	ra,80002088 <spi_txrx>
80001824:	01045513          	srli	a0,s0,0x10
80001828:	0ff57513          	andi	a0,a0,255
8000182c:	05d000ef          	jal	ra,80002088 <spi_txrx>
80001830:	00845513          	srli	a0,s0,0x8
80001834:	0ff57513          	andi	a0,a0,255
80001838:	051000ef          	jal	ra,80002088 <spi_txrx>
8000183c:	0ff47513          	andi	a0,s0,255
80001840:	049000ef          	jal	ra,80002088 <spi_txrx>
80001844:	00048513          	mv	a0,s1
80001848:	041000ef          	jal	ra,80002088 <spi_txrx>
8000184c:	06400413          	li	s0,100
80001850:	0080006f          	j	80001858 <sd_cmd+0x6c>
80001854:	00040c63          	beqz	s0,8000186c <sd_cmd+0x80>
80001858:	0ff00513          	li	a0,255
8000185c:	02d000ef          	jal	ra,80002088 <spi_txrx>
80001860:	0ff00793          	li	a5,255
80001864:	fff40413          	addi	s0,s0,-1
80001868:	fef506e3          	beq	a0,a5,80001854 <sd_cmd+0x68>
8000186c:	00c12083          	lw	ra,12(sp)
80001870:	00812403          	lw	s0,8(sp)
80001874:	00412483          	lw	s1,4(sp)
80001878:	00012903          	lw	s2,0(sp)
8000187c:	01010113          	addi	sp,sp,16
80001880:	00008067          	ret

80001884 <print_status>:
80001884:	ff010113          	addi	sp,sp,-16
80001888:	00812423          	sw	s0,8(sp)
8000188c:	00058413          	mv	s0,a1
80001890:	00050593          	mv	a1,a0
80001894:	80005537          	lui	a0,0x80005
80001898:	02450513          	addi	a0,a0,36 # 80005024 <__heap_start+0xffffbbd4>
8000189c:	00112623          	sw	ra,12(sp)
800018a0:	c61fe0ef          	jal	ra,80000500 <printf>
800018a4:	00040593          	mv	a1,s0
800018a8:	00812403          	lw	s0,8(sp)
800018ac:	00c12083          	lw	ra,12(sp)
800018b0:	80005537          	lui	a0,0x80005
800018b4:	03450513          	addi	a0,a0,52 # 80005034 <__heap_start+0xffffbbe4>
800018b8:	01010113          	addi	sp,sp,16
800018bc:	c45fe06f          	j	80000500 <printf>

800018c0 <sd_cmd0>:
800018c0:	ff010113          	addi	sp,sp,-16
800018c4:	09500613          	li	a2,149
800018c8:	00000593          	li	a1,0
800018cc:	00000513          	li	a0,0
800018d0:	00112623          	sw	ra,12(sp)
800018d4:	00812423          	sw	s0,8(sp)
800018d8:	00912223          	sw	s1,4(sp)
800018dc:	01212023          	sw	s2,0(sp)
800018e0:	f0dff0ef          	jal	ra,800017ec <sd_cmd>
800018e4:	00050493          	mv	s1,a0
800018e8:	0ff00513          	li	a0,255
800018ec:	79c000ef          	jal	ra,80002088 <spi_txrx>
800018f0:	3e700413          	li	s0,999
800018f4:	00100913          	li	s2,1
800018f8:	0180006f          	j	80001910 <sd_cmd0+0x50>
800018fc:	ef1ff0ef          	jal	ra,800017ec <sd_cmd>
80001900:	00050493          	mv	s1,a0
80001904:	0ff00513          	li	a0,255
80001908:	780000ef          	jal	ra,80002088 <spi_txrx>
8000190c:	04040c63          	beqz	s0,80001964 <sd_cmd0+0xa4>
80001910:	09500613          	li	a2,149
80001914:	00000593          	li	a1,0
80001918:	00000513          	li	a0,0
8000191c:	fff40413          	addi	s0,s0,-1
80001920:	fd249ee3          	bne	s1,s2,800018fc <sd_cmd0+0x3c>
80001924:	800055b7          	lui	a1,0x80005
80001928:	80005537          	lui	a0,0x80005
8000192c:	04858593          	addi	a1,a1,72 # 80005048 <__heap_start+0xffffbbf8>
80001930:	02450513          	addi	a0,a0,36 # 80005024 <__heap_start+0xffffbbd4>
80001934:	bcdfe0ef          	jal	ra,80000500 <printf>
80001938:	80005537          	lui	a0,0x80005
8000193c:	00100593          	li	a1,1
80001940:	03450513          	addi	a0,a0,52 # 80005034 <__heap_start+0xffffbbe4>
80001944:	bbdfe0ef          	jal	ra,80000500 <printf>
80001948:	00c12083          	lw	ra,12(sp)
8000194c:	00812403          	lw	s0,8(sp)
80001950:	00412483          	lw	s1,4(sp)
80001954:	00012903          	lw	s2,0(sp)
80001958:	00100513          	li	a0,1
8000195c:	01010113          	addi	sp,sp,16
80001960:	00008067          	ret
80001964:	00c12083          	lw	ra,12(sp)
80001968:	00812403          	lw	s0,8(sp)
8000196c:	00412483          	lw	s1,4(sp)
80001970:	00012903          	lw	s2,0(sp)
80001974:	00000513          	li	a0,0
80001978:	01010113          	addi	sp,sp,16
8000197c:	00008067          	ret

80001980 <sd_cmd8>:
80001980:	ff010113          	addi	sp,sp,-16
80001984:	08700613          	li	a2,135
80001988:	1aa00593          	li	a1,426
8000198c:	00800513          	li	a0,8
80001990:	00112623          	sw	ra,12(sp)
80001994:	00812423          	sw	s0,8(sp)
80001998:	00912223          	sw	s1,4(sp)
8000199c:	01212023          	sw	s2,0(sp)
800019a0:	e4dff0ef          	jal	ra,800017ec <sd_cmd>
800019a4:	00050413          	mv	s0,a0
800019a8:	0ff00513          	li	a0,255
800019ac:	6dc000ef          	jal	ra,80002088 <spi_txrx>
800019b0:	0ff00513          	li	a0,255
800019b4:	6d4000ef          	jal	ra,80002088 <spi_txrx>
800019b8:	0ff00513          	li	a0,255
800019bc:	6cc000ef          	jal	ra,80002088 <spi_txrx>
800019c0:	00050493          	mv	s1,a0
800019c4:	0ff00513          	li	a0,255
800019c8:	6c0000ef          	jal	ra,80002088 <spi_txrx>
800019cc:	00050913          	mv	s2,a0
800019d0:	0ff00513          	li	a0,255
800019d4:	6b4000ef          	jal	ra,80002088 <spi_txrx>
800019d8:	0ff00513          	li	a0,255
800019dc:	6ac000ef          	jal	ra,80002088 <spi_txrx>
800019e0:	00100793          	li	a5,1
800019e4:	00000513          	li	a0,0
800019e8:	00f40e63          	beq	s0,a5,80001a04 <sd_cmd8+0x84>
800019ec:	00c12083          	lw	ra,12(sp)
800019f0:	00812403          	lw	s0,8(sp)
800019f4:	00412483          	lw	s1,4(sp)
800019f8:	00012903          	lw	s2,0(sp)
800019fc:	01010113          	addi	sp,sp,16
80001a00:	00008067          	ret
80001a04:	00f4f493          	andi	s1,s1,15
80001a08:	fe8492e3          	bne	s1,s0,800019ec <sd_cmd8+0x6c>
80001a0c:	00c12083          	lw	ra,12(sp)
80001a10:	00812403          	lw	s0,8(sp)
80001a14:	f5690513          	addi	a0,s2,-170
80001a18:	00412483          	lw	s1,4(sp)
80001a1c:	00012903          	lw	s2,0(sp)
80001a20:	00153513          	seqz	a0,a0
80001a24:	01010113          	addi	sp,sp,16
80001a28:	00008067          	ret

80001a2c <sd_cmd55>:
80001a2c:	ff010113          	addi	sp,sp,-16
80001a30:	06500613          	li	a2,101
80001a34:	00000593          	li	a1,0
80001a38:	03700513          	li	a0,55
80001a3c:	00112623          	sw	ra,12(sp)
80001a40:	00812423          	sw	s0,8(sp)
80001a44:	da9ff0ef          	jal	ra,800017ec <sd_cmd>
80001a48:	00050413          	mv	s0,a0
80001a4c:	0ff00513          	li	a0,255
80001a50:	638000ef          	jal	ra,80002088 <spi_txrx>
80001a54:	800055b7          	lui	a1,0x80005
80001a58:	80005537          	lui	a0,0x80005
80001a5c:	05058593          	addi	a1,a1,80 # 80005050 <__heap_start+0xffffbc00>
80001a60:	02450513          	addi	a0,a0,36 # 80005024 <__heap_start+0xffffbbd4>
80001a64:	a9dfe0ef          	jal	ra,80000500 <printf>
80001a68:	80005537          	lui	a0,0x80005
80001a6c:	00040593          	mv	a1,s0
80001a70:	03450513          	addi	a0,a0,52 # 80005034 <__heap_start+0xffffbbe4>
80001a74:	a8dfe0ef          	jal	ra,80000500 <printf>
80001a78:	fff40513          	addi	a0,s0,-1
80001a7c:	00c12083          	lw	ra,12(sp)
80001a80:	00812403          	lw	s0,8(sp)
80001a84:	00153513          	seqz	a0,a0
80001a88:	01010113          	addi	sp,sp,16
80001a8c:	00008067          	ret

80001a90 <sd_acmd41>:
80001a90:	fe010113          	addi	sp,sp,-32
80001a94:	00912a23          	sw	s1,20(sp)
80001a98:	01212823          	sw	s2,16(sp)
80001a9c:	01312623          	sw	s3,12(sp)
80001aa0:	01412423          	sw	s4,8(sp)
80001aa4:	00112e23          	sw	ra,28(sp)
80001aa8:	00812c23          	sw	s0,24(sp)
80001aac:	80005a37          	lui	s4,0x80005
80001ab0:	800059b7          	lui	s3,0x80005
80001ab4:	80005937          	lui	s2,0x80005
80001ab8:	00100493          	li	s1,1
80001abc:	f71ff0ef          	jal	ra,80001a2c <sd_cmd55>
80001ac0:	07700613          	li	a2,119
80001ac4:	400005b7          	lui	a1,0x40000
80001ac8:	02900513          	li	a0,41
80001acc:	d21ff0ef          	jal	ra,800017ec <sd_cmd>
80001ad0:	00050413          	mv	s0,a0
80001ad4:	058a0593          	addi	a1,s4,88 # 80005058 <__heap_start+0xffffbc08>
80001ad8:	02498513          	addi	a0,s3,36 # 80005024 <__heap_start+0xffffbbd4>
80001adc:	a25fe0ef          	jal	ra,80000500 <printf>
80001ae0:	00040593          	mv	a1,s0
80001ae4:	03490513          	addi	a0,s2,52 # 80005034 <__heap_start+0xffffbbe4>
80001ae8:	a19fe0ef          	jal	ra,80000500 <printf>
80001aec:	0ff00513          	li	a0,255
80001af0:	598000ef          	jal	ra,80002088 <spi_txrx>
80001af4:	fc9404e3          	beq	s0,s1,80001abc <sd_acmd41+0x2c>
80001af8:	00143513          	seqz	a0,s0
80001afc:	01c12083          	lw	ra,28(sp)
80001b00:	01812403          	lw	s0,24(sp)
80001b04:	01412483          	lw	s1,20(sp)
80001b08:	01012903          	lw	s2,16(sp)
80001b0c:	00c12983          	lw	s3,12(sp)
80001b10:	00812a03          	lw	s4,8(sp)
80001b14:	02010113          	addi	sp,sp,32
80001b18:	00008067          	ret

80001b1c <init_sd>:
80001b1c:	ff010113          	addi	sp,sp,-16
80001b20:	00112623          	sw	ra,12(sp)
80001b24:	00812423          	sw	s0,8(sp)
80001b28:	4d4000ef          	jal	ra,80001ffc <spi_init>
80001b2c:	80005537          	lui	a0,0x80005
80001b30:	06050513          	addi	a0,a0,96 # 80005060 <__heap_start+0xffffbc10>
80001b34:	9cdfe0ef          	jal	ra,80000500 <printf>
80001b38:	800057b7          	lui	a5,0x80005
80001b3c:	a0078793          	addi	a5,a5,-1536 # 80004a00 <__heap_start+0xffffb5b0>
80001b40:	08078693          	addi	a3,a5,128
80001b44:	fff00713          	li	a4,-1
80001b48:	00e78023          	sb	a4,0(a5)
80001b4c:	00178793          	addi	a5,a5,1
80001b50:	fef69ce3          	bne	a3,a5,80001b48 <init_sd+0x2c>
80001b54:	00a00413          	li	s0,10
80001b58:	fff40413          	addi	s0,s0,-1
80001b5c:	0ff00513          	li	a0,255
80001b60:	528000ef          	jal	ra,80002088 <spi_txrx>
80001b64:	fe041ae3          	bnez	s0,80001b58 <init_sd+0x3c>
80001b68:	d59ff0ef          	jal	ra,800018c0 <sd_cmd0>
80001b6c:	02050663          	beqz	a0,80001b98 <init_sd+0x7c>
80001b70:	e11ff0ef          	jal	ra,80001980 <sd_cmd8>
80001b74:	02050663          	beqz	a0,80001ba0 <init_sd+0x84>
80001b78:	f19ff0ef          	jal	ra,80001a90 <sd_acmd41>
80001b7c:	00000793          	li	a5,0
80001b80:	02050463          	beqz	a0,80001ba8 <init_sd+0x8c>
80001b84:	00c12083          	lw	ra,12(sp)
80001b88:	00812403          	lw	s0,8(sp)
80001b8c:	00078513          	mv	a0,a5
80001b90:	01010113          	addi	sp,sp,16
80001b94:	00008067          	ret
80001b98:	fff00793          	li	a5,-1
80001b9c:	fe9ff06f          	j	80001b84 <init_sd+0x68>
80001ba0:	ffe00793          	li	a5,-2
80001ba4:	fe1ff06f          	j	80001b84 <init_sd+0x68>
80001ba8:	ffd00793          	li	a5,-3
80001bac:	fd9ff06f          	j	80001b84 <init_sd+0x68>

80001bb0 <crc7>:
80001bb0:	00b575b3          	and	a1,a0,a1
80001bb4:	0075d793          	srli	a5,a1,0x7
80001bb8:	0045d513          	srli	a0,a1,0x4
80001bbc:	00f54533          	xor	a0,a0,a5
80001bc0:	00b54533          	xor	a0,a0,a1
80001bc4:	00451593          	slli	a1,a0,0x4
80001bc8:	00a5c533          	xor	a0,a1,a0
80001bcc:	07f57513          	andi	a0,a0,127
80001bd0:	00008067          	ret

80001bd4 <crc16>:
80001bd4:	00851793          	slli	a5,a0,0x8
80001bd8:	00855513          	srli	a0,a0,0x8
80001bdc:	00a7e7b3          	or	a5,a5,a0
80001be0:	01079793          	slli	a5,a5,0x10
80001be4:	0107d793          	srli	a5,a5,0x10
80001be8:	00b7c5b3          	xor	a1,a5,a1
80001bec:	0045d513          	srli	a0,a1,0x4
80001bf0:	00f57513          	andi	a0,a0,15
80001bf4:	00b545b3          	xor	a1,a0,a1
80001bf8:	00c59513          	slli	a0,a1,0xc
80001bfc:	00a5c533          	xor	a0,a1,a0
80001c00:	01051513          	slli	a0,a0,0x10
80001c04:	41055513          	srai	a0,a0,0x10
80001c08:	01051793          	slli	a5,a0,0x10
80001c0c:	0107d793          	srli	a5,a5,0x10
80001c10:	00002737          	lui	a4,0x2
80001c14:	fe070713          	addi	a4,a4,-32 # 1fe0 <__stack_size+0x1de0>
80001c18:	00579793          	slli	a5,a5,0x5
80001c1c:	00e7f7b3          	and	a5,a5,a4
80001c20:	00f54533          	xor	a0,a0,a5
80001c24:	01051513          	slli	a0,a0,0x10
80001c28:	01055513          	srli	a0,a0,0x10
80001c2c:	00008067          	ret

80001c30 <sd_copy>:
80001c30:	fd010113          	addi	sp,sp,-48
80001c34:	02912223          	sw	s1,36(sp)
80001c38:	01412c23          	sw	s4,24(sp)
80001c3c:	00050493          	mv	s1,a0
80001c40:	00060a13          	mv	s4,a2
80001c44:	01200513          	li	a0,18
80001c48:	00100613          	li	a2,1
80001c4c:	02112623          	sw	ra,44(sp)
80001c50:	02812423          	sw	s0,40(sp)
80001c54:	03212023          	sw	s2,32(sp)
80001c58:	01312e23          	sw	s3,28(sp)
80001c5c:	01512a23          	sw	s5,20(sp)
80001c60:	01612823          	sw	s6,16(sp)
80001c64:	01712623          	sw	s7,12(sp)
80001c68:	b85ff0ef          	jal	ra,800017ec <sd_cmd>
80001c6c:	12051c63          	bnez	a0,80001da4 <sd_copy+0x174>
80001c70:	00002b37          	lui	s6,0x2
80001c74:	20048493          	addi	s1,s1,512
80001c78:	800059b7          	lui	s3,0x80005
80001c7c:	0fe00913          	li	s2,254
80001c80:	fe0b0b13          	addi	s6,s6,-32 # 1fe0 <__stack_size+0x1de0>
80001c84:	e0048b93          	addi	s7,s1,-512
80001c88:	0ff00513          	li	a0,255
80001c8c:	3fc000ef          	jal	ra,80002088 <spi_txrx>
80001c90:	ff251ce3          	bne	a0,s2,80001c88 <sd_copy+0x58>
80001c94:	e4048a93          	addi	s5,s1,-448
80001c98:	00000413          	li	s0,0
80001c9c:	000b8613          	mv	a2,s7
80001ca0:	04000593          	li	a1,64
80001ca4:	a0098513          	addi	a0,s3,-1536 # 80004a00 <__heap_start+0xffffb5b0>
80001ca8:	448000ef          	jal	ra,800020f0 <spi_write_bytes>
80001cac:	000b8713          	mv	a4,s7
80001cb0:	00074683          	lbu	a3,0(a4)
80001cb4:	00841793          	slli	a5,s0,0x8
80001cb8:	00845413          	srli	s0,s0,0x8
80001cbc:	0087e433          	or	s0,a5,s0
80001cc0:	00d44433          	xor	s0,s0,a3
80001cc4:	01041793          	slli	a5,s0,0x10
80001cc8:	0107d793          	srli	a5,a5,0x10
80001ccc:	0047d413          	srli	s0,a5,0x4
80001cd0:	00f47413          	andi	s0,s0,15
80001cd4:	00f44433          	xor	s0,s0,a5
80001cd8:	00c41793          	slli	a5,s0,0xc
80001cdc:	00f44433          	xor	s0,s0,a5
80001ce0:	01041413          	slli	s0,s0,0x10
80001ce4:	41045413          	srai	s0,s0,0x10
80001ce8:	01041793          	slli	a5,s0,0x10
80001cec:	0107d793          	srli	a5,a5,0x10
80001cf0:	00579793          	slli	a5,a5,0x5
80001cf4:	0167f7b3          	and	a5,a5,s6
80001cf8:	00f44433          	xor	s0,s0,a5
80001cfc:	01041413          	slli	s0,s0,0x10
80001d00:	00170713          	addi	a4,a4,1
80001d04:	01045413          	srli	s0,s0,0x10
80001d08:	faea94e3          	bne	s5,a4,80001cb0 <sd_copy+0x80>
80001d0c:	040b8b93          	addi	s7,s7,64
80001d10:	040a8a93          	addi	s5,s5,64
80001d14:	f89b94e3          	bne	s7,s1,80001c9c <sd_copy+0x6c>
80001d18:	0ff00513          	li	a0,255
80001d1c:	36c000ef          	jal	ra,80002088 <spi_txrx>
80001d20:	00851493          	slli	s1,a0,0x8
80001d24:	01049493          	slli	s1,s1,0x10
80001d28:	0ff00513          	li	a0,255
80001d2c:	0104d493          	srli	s1,s1,0x10
80001d30:	358000ef          	jal	ra,80002088 <spi_txrx>
80001d34:	00a4e7b3          	or	a5,s1,a0
80001d38:	01079793          	slli	a5,a5,0x10
80001d3c:	0107d793          	srli	a5,a5,0x10
80001d40:	00879c63          	bne	a5,s0,80001d58 <sd_copy+0x128>
80001d44:	fffa0a13          	addi	s4,s4,-1
80001d48:	200b8493          	addi	s1,s7,512
80001d4c:	f3404ce3          	bgtz	s4,80001c84 <sd_copy+0x54>
80001d50:	00000413          	li	s0,0
80001d54:	0080006f          	j	80001d5c <sd_copy+0x12c>
80001d58:	ffc00413          	li	s0,-4
80001d5c:	00100613          	li	a2,1
80001d60:	00000593          	li	a1,0
80001d64:	00c00513          	li	a0,12
80001d68:	a85ff0ef          	jal	ra,800017ec <sd_cmd>
80001d6c:	0ff00513          	li	a0,255
80001d70:	318000ef          	jal	ra,80002088 <spi_txrx>
80001d74:	00040513          	mv	a0,s0
80001d78:	02c12083          	lw	ra,44(sp)
80001d7c:	02812403          	lw	s0,40(sp)
80001d80:	02412483          	lw	s1,36(sp)
80001d84:	02012903          	lw	s2,32(sp)
80001d88:	01c12983          	lw	s3,28(sp)
80001d8c:	01812a03          	lw	s4,24(sp)
80001d90:	01412a83          	lw	s5,20(sp)
80001d94:	01012b03          	lw	s6,16(sp)
80001d98:	00c12b83          	lw	s7,12(sp)
80001d9c:	03010113          	addi	sp,sp,48
80001da0:	00008067          	ret
80001da4:	00800413          	li	s0,8
80001da8:	fff40413          	addi	s0,s0,-1
80001dac:	0ff00513          	li	a0,255
80001db0:	2d8000ef          	jal	ra,80002088 <spi_txrx>
80001db4:	fe041ae3          	bnez	s0,80001da8 <sd_copy+0x178>
80001db8:	80005537          	lui	a0,0x80005
80001dbc:	07850513          	addi	a0,a0,120 # 80005078 <__heap_start+0xffffbc28>
80001dc0:	f40fe0ef          	jal	ra,80000500 <printf>
80001dc4:	fff00413          	li	s0,-1
80001dc8:	fadff06f          	j	80001d74 <sd_copy+0x144>

80001dcc <sd_write>:
80001dcc:	fb010113          	addi	sp,sp,-80
80001dd0:	04812423          	sw	s0,72(sp)
80001dd4:	05212023          	sw	s2,64(sp)
80001dd8:	00050413          	mv	s0,a0
80001ddc:	00060913          	mv	s2,a2
80001de0:	01900513          	li	a0,25
80001de4:	00100613          	li	a2,1
80001de8:	04112623          	sw	ra,76(sp)
80001dec:	04912223          	sw	s1,68(sp)
80001df0:	03312e23          	sw	s3,60(sp)
80001df4:	03412c23          	sw	s4,56(sp)
80001df8:	03512a23          	sw	s5,52(sp)
80001dfc:	03612823          	sw	s6,48(sp)
80001e00:	03712623          	sw	s7,44(sp)
80001e04:	03812423          	sw	s8,40(sp)
80001e08:	03912223          	sw	s9,36(sp)
80001e0c:	03a12023          	sw	s10,32(sp)
80001e10:	01b12e23          	sw	s11,28(sp)
80001e14:	9d9ff0ef          	jal	ra,800017ec <sd_cmd>
80001e18:	1a051663          	bnez	a0,80001fc4 <sd_write+0x1f8>
80001e1c:	0ff00513          	li	a0,255
80001e20:	00002cb7          	lui	s9,0x2
80001e24:	264000ef          	jal	ra,80002088 <spi_txrx>
80001e28:	20040413          	addi	s0,s0,512
80001e2c:	800054b7          	lui	s1,0x80005
80001e30:	fe0c8c93          	addi	s9,s9,-32 # 1fe0 <__stack_size+0x1de0>
80001e34:	00a00b93          	li	s7,10
80001e38:	00c00b13          	li	s6,12
80001e3c:	00500a93          	li	s5,5
80001e40:	3e800a13          	li	s4,1000
80001e44:	800059b7          	lui	s3,0x80005
80001e48:	0fc00513          	li	a0,252
80001e4c:	e0040d13          	addi	s10,s0,-512
80001e50:	238000ef          	jal	ra,80002088 <spi_txrx>
80001e54:	e4040c13          	addi	s8,s0,-448
80001e58:	00000d93          	li	s11,0
80001e5c:	a0048613          	addi	a2,s1,-1536 # 80004a00 <__heap_start+0xffffb5b0>
80001e60:	04000593          	li	a1,64
80001e64:	000d0513          	mv	a0,s10
80001e68:	288000ef          	jal	ra,800020f0 <spi_write_bytes>
80001e6c:	000d0693          	mv	a3,s10
80001e70:	0006c703          	lbu	a4,0(a3)
80001e74:	008d9793          	slli	a5,s11,0x8
80001e78:	008ddd93          	srli	s11,s11,0x8
80001e7c:	01b7e7b3          	or	a5,a5,s11
80001e80:	00e7c7b3          	xor	a5,a5,a4
80001e84:	01079713          	slli	a4,a5,0x10
80001e88:	01075713          	srli	a4,a4,0x10
80001e8c:	00475793          	srli	a5,a4,0x4
80001e90:	00f7f793          	andi	a5,a5,15
80001e94:	00e7c7b3          	xor	a5,a5,a4
80001e98:	00c79713          	slli	a4,a5,0xc
80001e9c:	00e7c7b3          	xor	a5,a5,a4
80001ea0:	01079793          	slli	a5,a5,0x10
80001ea4:	4107d793          	srai	a5,a5,0x10
80001ea8:	01079713          	slli	a4,a5,0x10
80001eac:	01075713          	srli	a4,a4,0x10
80001eb0:	00571713          	slli	a4,a4,0x5
80001eb4:	01977733          	and	a4,a4,s9
80001eb8:	00e7c7b3          	xor	a5,a5,a4
80001ebc:	01079793          	slli	a5,a5,0x10
80001ec0:	4107d793          	srai	a5,a5,0x10
80001ec4:	01079d93          	slli	s11,a5,0x10
80001ec8:	00168693          	addi	a3,a3,1
80001ecc:	010ddd93          	srli	s11,s11,0x10
80001ed0:	fb8690e3          	bne	a3,s8,80001e70 <sd_write+0xa4>
80001ed4:	040d0d13          	addi	s10,s10,64
80001ed8:	04068c13          	addi	s8,a3,64
80001edc:	f88d10e3          	bne	s10,s0,80001e5c <sd_write+0x90>
80001ee0:	00000513          	li	a0,0
80001ee4:	00f12623          	sw	a5,12(sp)
80001ee8:	1a0000ef          	jal	ra,80002088 <spi_txrx>
80001eec:	00c12783          	lw	a5,12(sp)
80001ef0:	0ff7f513          	andi	a0,a5,255
80001ef4:	194000ef          	jal	ra,80002088 <spi_txrx>
80001ef8:	0ff00513          	li	a0,255
80001efc:	18c000ef          	jal	ra,80002088 <spi_txrx>
80001f00:	0ff00793          	li	a5,255
80001f04:	fef50ae3          	beq	a0,a5,80001ef8 <sd_write+0x12c>
80001f08:	01f57513          	andi	a0,a0,31
80001f0c:	05750063          	beq	a0,s7,80001f4c <sd_write+0x180>
80001f10:	0b650663          	beq	a0,s6,80001fbc <sd_write+0x1f0>
80001f14:	0b551063          	bne	a0,s5,80001fb4 <sd_write+0x1e8>
80001f18:	0ff00513          	li	a0,255
80001f1c:	16c000ef          	jal	ra,80002088 <spi_txrx>
80001f20:	fe050ce3          	beqz	a0,80001f18 <sd_write+0x14c>
80001f24:	034967b3          	rem	a5,s2,s4
80001f28:	00078c63          	beqz	a5,80001f40 <sd_write+0x174>
80001f2c:	fff90913          	addi	s2,s2,-1
80001f30:	20040413          	addi	s0,s0,512
80001f34:	f1204ae3          	bgtz	s2,80001e48 <sd_write+0x7c>
80001f38:	00000413          	li	s0,0
80001f3c:	0140006f          	j	80001f50 <sd_write+0x184>
80001f40:	0b098513          	addi	a0,s3,176 # 800050b0 <__heap_start+0xffffbc60>
80001f44:	dbcfe0ef          	jal	ra,80000500 <printf>
80001f48:	fe5ff06f          	j	80001f2c <sd_write+0x160>
80001f4c:	ffe00413          	li	s0,-2
80001f50:	0fd00513          	li	a0,253
80001f54:	134000ef          	jal	ra,80002088 <spi_txrx>
80001f58:	0ff00513          	li	a0,255
80001f5c:	12c000ef          	jal	ra,80002088 <spi_txrx>
80001f60:	0ff00513          	li	a0,255
80001f64:	124000ef          	jal	ra,80002088 <spi_txrx>
80001f68:	fe050ce3          	beqz	a0,80001f60 <sd_write+0x194>
80001f6c:	0ff00513          	li	a0,255
80001f70:	118000ef          	jal	ra,80002088 <spi_txrx>
80001f74:	00040513          	mv	a0,s0
80001f78:	04c12083          	lw	ra,76(sp)
80001f7c:	04812403          	lw	s0,72(sp)
80001f80:	04412483          	lw	s1,68(sp)
80001f84:	04012903          	lw	s2,64(sp)
80001f88:	03c12983          	lw	s3,60(sp)
80001f8c:	03812a03          	lw	s4,56(sp)
80001f90:	03412a83          	lw	s5,52(sp)
80001f94:	03012b03          	lw	s6,48(sp)
80001f98:	02c12b83          	lw	s7,44(sp)
80001f9c:	02812c03          	lw	s8,40(sp)
80001fa0:	02412c83          	lw	s9,36(sp)
80001fa4:	02012d03          	lw	s10,32(sp)
80001fa8:	01c12d83          	lw	s11,28(sp)
80001fac:	05010113          	addi	sp,sp,80
80001fb0:	00008067          	ret
80001fb4:	ffc00413          	li	s0,-4
80001fb8:	f99ff06f          	j	80001f50 <sd_write+0x184>
80001fbc:	ffd00413          	li	s0,-3
80001fc0:	f91ff06f          	j	80001f50 <sd_write+0x184>
80001fc4:	00800413          	li	s0,8
80001fc8:	fff40413          	addi	s0,s0,-1
80001fcc:	0ff00513          	li	a0,255
80001fd0:	0b8000ef          	jal	ra,80002088 <spi_txrx>
80001fd4:	fe041ae3          	bnez	s0,80001fc8 <sd_write+0x1fc>
80001fd8:	80005537          	lui	a0,0x80005
80001fdc:	09450513          	addi	a0,a0,148 # 80005094 <__heap_start+0xffffbc44>
80001fe0:	d20fe0ef          	jal	ra,80000500 <printf>
80001fe4:	fff00413          	li	s0,-1
80001fe8:	f8dff06f          	j	80001f74 <sd_write+0x1a8>

80001fec <write_reg>:
80001fec:	00b52023          	sw	a1,0(a0)
80001ff0:	00008067          	ret

80001ff4 <read_reg>:
80001ff4:	00052503          	lw	a0,0(a0)
80001ff8:	00008067          	ret

80001ffc <spi_init>:
80001ffc:	80005537          	lui	a0,0x80005
80002000:	ff010113          	addi	sp,sp,-16
80002004:	0b450513          	addi	a0,a0,180 # 800050b4 <__heap_start+0xffffbc64>
80002008:	00112623          	sw	ra,12(sp)
8000200c:	00812423          	sw	s0,8(sp)
80002010:	00912223          	sw	s1,4(sp)
80002014:	cecfe0ef          	jal	ra,80000500 <printf>
80002018:	c20007b7          	lui	a5,0xc2000
8000201c:	00a00713          	li	a4,10
80002020:	04e7a023          	sw	a4,64(a5) # c2000040 <__heap_start+0x41ff6bf0>
80002024:	00a00793          	li	a5,10
80002028:	00000013          	nop
8000202c:	fff78793          	addi	a5,a5,-1
80002030:	fe079ce3          	bnez	a5,80002028 <spi_init+0x2c>
80002034:	c2000437          	lui	s0,0xc2000
80002038:	10400793          	li	a5,260
8000203c:	06f42023          	sw	a5,96(s0) # c2000060 <__heap_start+0x41ff6c10>
80002040:	06442583          	lw	a1,100(s0)
80002044:	800054b7          	lui	s1,0x80005
80002048:	0c048513          	addi	a0,s1,192 # 800050c0 <__heap_start+0xffffbc70>
8000204c:	cb4fe0ef          	jal	ra,80000500 <printf>
80002050:	16600793          	li	a5,358
80002054:	06f42023          	sw	a5,96(s0)
80002058:	06442583          	lw	a1,100(s0)
8000205c:	0c048513          	addi	a0,s1,192
80002060:	ca0fe0ef          	jal	ra,80000500 <printf>
80002064:	00600793          	li	a5,6
80002068:	06f42023          	sw	a5,96(s0)
8000206c:	00812403          	lw	s0,8(sp)
80002070:	00c12083          	lw	ra,12(sp)
80002074:	00412483          	lw	s1,4(sp)
80002078:	80005537          	lui	a0,0x80005
8000207c:	0d050513          	addi	a0,a0,208 # 800050d0 <__heap_start+0xffffbc80>
80002080:	01010113          	addi	sp,sp,16
80002084:	c7cfe06f          	j	80000500 <printf>

80002088 <spi_txrx>:
80002088:	c20007b7          	lui	a5,0xc2000
8000208c:	ffe00713          	li	a4,-2
80002090:	06e7a823          	sw	a4,112(a5) # c2000070 <__heap_start+0x41ff6c20>
80002094:	06a7a423          	sw	a0,104(a5)
80002098:	1f400793          	li	a5,500
8000209c:	00000013          	nop
800020a0:	fff78793          	addi	a5,a5,-1
800020a4:	fe079ce3          	bnez	a5,8000209c <spi_txrx+0x14>
800020a8:	10600713          	li	a4,262
800020ac:	c20007b7          	lui	a5,0xc2000
800020b0:	06e7a023          	sw	a4,96(a5) # c2000060 <__heap_start+0x41ff6c10>
800020b4:	c2000737          	lui	a4,0xc2000
800020b8:	06472783          	lw	a5,100(a4) # c2000064 <__heap_start+0x41ff6c14>
800020bc:	0017f793          	andi	a5,a5,1
800020c0:	fe079ce3          	bnez	a5,800020b8 <spi_txrx+0x30>
800020c4:	06c72503          	lw	a0,108(a4)
800020c8:	c2000737          	lui	a4,0xc2000
800020cc:	0ff57513          	andi	a0,a0,255
800020d0:	06472783          	lw	a5,100(a4) # c2000064 <__heap_start+0x41ff6c14>
800020d4:	0017f793          	andi	a5,a5,1
800020d8:	fe078ce3          	beqz	a5,800020d0 <spi_txrx+0x48>
800020dc:	fff00793          	li	a5,-1
800020e0:	06f72823          	sw	a5,112(a4)
800020e4:	00600793          	li	a5,6
800020e8:	06f72023          	sw	a5,96(a4)
800020ec:	00008067          	ret

800020f0 <spi_write_bytes>:
800020f0:	10000793          	li	a5,256
800020f4:	0ab7e463          	bltu	a5,a1,8000219c <spi_write_bytes+0xac>
800020f8:	c20007b7          	lui	a5,0xc2000
800020fc:	ffe00713          	li	a4,-2
80002100:	06e7a823          	sw	a4,112(a5) # c2000070 <__heap_start+0x41ff6c20>
80002104:	00058e63          	beqz	a1,80002120 <spi_write_bytes+0x30>
80002108:	00b506b3          	add	a3,a0,a1
8000210c:	c2000737          	lui	a4,0xc2000
80002110:	00054783          	lbu	a5,0(a0)
80002114:	00150513          	addi	a0,a0,1
80002118:	06f72423          	sw	a5,104(a4) # c2000068 <__heap_start+0x41ff6c18>
8000211c:	fed51ae3          	bne	a0,a3,80002110 <spi_write_bytes+0x20>
80002120:	1f400793          	li	a5,500
80002124:	00000013          	nop
80002128:	fff78793          	addi	a5,a5,-1
8000212c:	fe079ce3          	bnez	a5,80002124 <spi_write_bytes+0x34>
80002130:	10600713          	li	a4,262
80002134:	c20007b7          	lui	a5,0xc2000
80002138:	06e7a023          	sw	a4,96(a5) # c2000060 <__heap_start+0x41ff6c10>
8000213c:	c2000737          	lui	a4,0xc2000
80002140:	06472783          	lw	a5,100(a4) # c2000064 <__heap_start+0x41ff6c14>
80002144:	0017f793          	andi	a5,a5,1
80002148:	fe079ce3          	bnez	a5,80002140 <spi_write_bytes+0x50>
8000214c:	02058463          	beqz	a1,80002174 <spi_write_bytes+0x84>
80002150:	00b60733          	add	a4,a2,a1
80002154:	c20006b7          	lui	a3,0xc2000
80002158:	0646a783          	lw	a5,100(a3) # c2000064 <__heap_start+0x41ff6c14>
8000215c:	0017f793          	andi	a5,a5,1
80002160:	00079663          	bnez	a5,8000216c <spi_write_bytes+0x7c>
80002164:	06c6a783          	lw	a5,108(a3)
80002168:	00f60023          	sb	a5,0(a2)
8000216c:	00160613          	addi	a2,a2,1
80002170:	fec714e3          	bne	a4,a2,80002158 <spi_write_bytes+0x68>
80002174:	c2000737          	lui	a4,0xc2000
80002178:	06472783          	lw	a5,100(a4) # c2000064 <__heap_start+0x41ff6c14>
8000217c:	0017f793          	andi	a5,a5,1
80002180:	fe078ce3          	beqz	a5,80002178 <spi_write_bytes+0x88>
80002184:	fff00793          	li	a5,-1
80002188:	06f72823          	sw	a5,112(a4)
8000218c:	00600793          	li	a5,6
80002190:	06f72023          	sw	a5,96(a4)
80002194:	00000513          	li	a0,0
80002198:	00008067          	ret
8000219c:	fff00513          	li	a0,-1
800021a0:	00008067          	ret

800021a4 <__adddf3>:
800021a4:	00100837          	lui	a6,0x100
800021a8:	fff80813          	addi	a6,a6,-1 # fffff <__heap_size+0xfbfff>
800021ac:	00b878b3          	and	a7,a6,a1
800021b0:	00389893          	slli	a7,a7,0x3
800021b4:	01d55793          	srli	a5,a0,0x1d
800021b8:	fe010113          	addi	sp,sp,-32
800021bc:	0145d713          	srli	a4,a1,0x14
800021c0:	00d87833          	and	a6,a6,a3
800021c4:	0117e7b3          	or	a5,a5,a7
800021c8:	0146d893          	srli	a7,a3,0x14
800021cc:	00381813          	slli	a6,a6,0x3
800021d0:	00912a23          	sw	s1,20(sp)
800021d4:	01212823          	sw	s2,16(sp)
800021d8:	7ff77493          	andi	s1,a4,2047
800021dc:	7ff8f893          	andi	a7,a7,2047
800021e0:	01d65713          	srli	a4,a2,0x1d
800021e4:	00112e23          	sw	ra,28(sp)
800021e8:	00812c23          	sw	s0,24(sp)
800021ec:	01312623          	sw	s3,12(sp)
800021f0:	01f5d913          	srli	s2,a1,0x1f
800021f4:	01f6d693          	srli	a3,a3,0x1f
800021f8:	01076733          	or	a4,a4,a6
800021fc:	00351513          	slli	a0,a0,0x3
80002200:	00361613          	slli	a2,a2,0x3
80002204:	41148833          	sub	a6,s1,a7
80002208:	2cd91463          	bne	s2,a3,800024d0 <__adddf3+0x32c>
8000220c:	11005e63          	blez	a6,80002328 <__adddf3+0x184>
80002210:	04089063          	bnez	a7,80002250 <__adddf3+0xac>
80002214:	00c766b3          	or	a3,a4,a2
80002218:	70068063          	beqz	a3,80002918 <__adddf3+0x774>
8000221c:	fff80593          	addi	a1,a6,-1
80002220:	02059063          	bnez	a1,80002240 <__adddf3+0x9c>
80002224:	00c50633          	add	a2,a0,a2
80002228:	00a63533          	sltu	a0,a2,a0
8000222c:	00e787b3          	add	a5,a5,a4
80002230:	00a787b3          	add	a5,a5,a0
80002234:	00060513          	mv	a0,a2
80002238:	00100493          	li	s1,1
8000223c:	0700006f          	j	800022ac <__adddf3+0x108>
80002240:	7ff00693          	li	a3,2047
80002244:	02d81063          	bne	a6,a3,80002264 <__adddf3+0xc0>
80002248:	7ff00493          	li	s1,2047
8000224c:	20c0006f          	j	80002458 <__adddf3+0x2b4>
80002250:	7ff00693          	li	a3,2047
80002254:	20d48263          	beq	s1,a3,80002458 <__adddf3+0x2b4>
80002258:	008006b7          	lui	a3,0x800
8000225c:	00d76733          	or	a4,a4,a3
80002260:	00080593          	mv	a1,a6
80002264:	03800693          	li	a3,56
80002268:	0ab6ca63          	blt	a3,a1,8000231c <__adddf3+0x178>
8000226c:	01f00693          	li	a3,31
80002270:	06b6cc63          	blt	a3,a1,800022e8 <__adddf3+0x144>
80002274:	02000813          	li	a6,32
80002278:	40b80833          	sub	a6,a6,a1
8000227c:	010716b3          	sll	a3,a4,a6
80002280:	00b658b3          	srl	a7,a2,a1
80002284:	01061633          	sll	a2,a2,a6
80002288:	0116e6b3          	or	a3,a3,a7
8000228c:	00c03633          	snez	a2,a2
80002290:	00c6e633          	or	a2,a3,a2
80002294:	00b75733          	srl	a4,a4,a1
80002298:	00a60633          	add	a2,a2,a0
8000229c:	00f70733          	add	a4,a4,a5
800022a0:	00a637b3          	sltu	a5,a2,a0
800022a4:	00f707b3          	add	a5,a4,a5
800022a8:	00060513          	mv	a0,a2
800022ac:	00879713          	slli	a4,a5,0x8
800022b0:	1a075463          	bgez	a4,80002458 <__adddf3+0x2b4>
800022b4:	00148493          	addi	s1,s1,1
800022b8:	7ff00713          	li	a4,2047
800022bc:	5ce48463          	beq	s1,a4,80002884 <__adddf3+0x6e0>
800022c0:	ff8006b7          	lui	a3,0xff800
800022c4:	fff68693          	addi	a3,a3,-1 # ff7fffff <__heap_start+0x7f7f6baf>
800022c8:	00d7f6b3          	and	a3,a5,a3
800022cc:	00155593          	srli	a1,a0,0x1
800022d0:	00157513          	andi	a0,a0,1
800022d4:	01f69793          	slli	a5,a3,0x1f
800022d8:	00a5e533          	or	a0,a1,a0
800022dc:	00a7e533          	or	a0,a5,a0
800022e0:	0016d793          	srli	a5,a3,0x1
800022e4:	1740006f          	j	80002458 <__adddf3+0x2b4>
800022e8:	fe058693          	addi	a3,a1,-32 # 3fffffe0 <__heap_size+0x3fffbfe0>
800022ec:	02000893          	li	a7,32
800022f0:	00d756b3          	srl	a3,a4,a3
800022f4:	00000813          	li	a6,0
800022f8:	01158863          	beq	a1,a7,80002308 <__adddf3+0x164>
800022fc:	04000813          	li	a6,64
80002300:	40b805b3          	sub	a1,a6,a1
80002304:	00b71833          	sll	a6,a4,a1
80002308:	00c86633          	or	a2,a6,a2
8000230c:	00c03633          	snez	a2,a2
80002310:	00c6e633          	or	a2,a3,a2
80002314:	00000713          	li	a4,0
80002318:	f81ff06f          	j	80002298 <__adddf3+0xf4>
8000231c:	00c76633          	or	a2,a4,a2
80002320:	00c03633          	snez	a2,a2
80002324:	ff1ff06f          	j	80002314 <__adddf3+0x170>
80002328:	0e080263          	beqz	a6,8000240c <__adddf3+0x268>
8000232c:	409885b3          	sub	a1,a7,s1
80002330:	02049e63          	bnez	s1,8000236c <__adddf3+0x1c8>
80002334:	00a7e6b3          	or	a3,a5,a0
80002338:	52068663          	beqz	a3,80002864 <__adddf3+0x6c0>
8000233c:	fff58693          	addi	a3,a1,-1
80002340:	00069c63          	bnez	a3,80002358 <__adddf3+0x1b4>
80002344:	00c50533          	add	a0,a0,a2
80002348:	00e787b3          	add	a5,a5,a4
8000234c:	00c53633          	sltu	a2,a0,a2
80002350:	00c787b3          	add	a5,a5,a2
80002354:	ee5ff06f          	j	80002238 <__adddf3+0x94>
80002358:	7ff00813          	li	a6,2047
8000235c:	03059263          	bne	a1,a6,80002380 <__adddf3+0x1dc>
80002360:	00070793          	mv	a5,a4
80002364:	00060513          	mv	a0,a2
80002368:	ee1ff06f          	j	80002248 <__adddf3+0xa4>
8000236c:	7ff00693          	li	a3,2047
80002370:	fed888e3          	beq	a7,a3,80002360 <__adddf3+0x1bc>
80002374:	008006b7          	lui	a3,0x800
80002378:	00d7e7b3          	or	a5,a5,a3
8000237c:	00058693          	mv	a3,a1
80002380:	03800593          	li	a1,56
80002384:	06d5ce63          	blt	a1,a3,80002400 <__adddf3+0x25c>
80002388:	01f00593          	li	a1,31
8000238c:	04d5c063          	blt	a1,a3,800023cc <__adddf3+0x228>
80002390:	02000813          	li	a6,32
80002394:	40d80833          	sub	a6,a6,a3
80002398:	00d55333          	srl	t1,a0,a3
8000239c:	010795b3          	sll	a1,a5,a6
800023a0:	01051533          	sll	a0,a0,a6
800023a4:	0065e5b3          	or	a1,a1,t1
800023a8:	00a03533          	snez	a0,a0
800023ac:	00a5e533          	or	a0,a1,a0
800023b0:	00d7d6b3          	srl	a3,a5,a3
800023b4:	00c50533          	add	a0,a0,a2
800023b8:	00e687b3          	add	a5,a3,a4
800023bc:	00c53633          	sltu	a2,a0,a2
800023c0:	00c787b3          	add	a5,a5,a2
800023c4:	00088493          	mv	s1,a7
800023c8:	ee5ff06f          	j	800022ac <__adddf3+0x108>
800023cc:	fe068593          	addi	a1,a3,-32 # 7fffe0 <__heap_size+0x7fbfe0>
800023d0:	02000313          	li	t1,32
800023d4:	00b7d5b3          	srl	a1,a5,a1
800023d8:	00000813          	li	a6,0
800023dc:	00668863          	beq	a3,t1,800023ec <__adddf3+0x248>
800023e0:	04000813          	li	a6,64
800023e4:	40d806b3          	sub	a3,a6,a3
800023e8:	00d79833          	sll	a6,a5,a3
800023ec:	00a86533          	or	a0,a6,a0
800023f0:	00a03533          	snez	a0,a0
800023f4:	00a5e533          	or	a0,a1,a0
800023f8:	00000693          	li	a3,0
800023fc:	fb9ff06f          	j	800023b4 <__adddf3+0x210>
80002400:	00a7e533          	or	a0,a5,a0
80002404:	00a03533          	snez	a0,a0
80002408:	ff1ff06f          	j	800023f8 <__adddf3+0x254>
8000240c:	00148693          	addi	a3,s1,1
80002410:	7fe6f593          	andi	a1,a3,2046
80002414:	08059663          	bnez	a1,800024a0 <__adddf3+0x2fc>
80002418:	00a7e6b3          	or	a3,a5,a0
8000241c:	06049263          	bnez	s1,80002480 <__adddf3+0x2dc>
80002420:	44068a63          	beqz	a3,80002874 <__adddf3+0x6d0>
80002424:	00c766b3          	or	a3,a4,a2
80002428:	02068863          	beqz	a3,80002458 <__adddf3+0x2b4>
8000242c:	00c50633          	add	a2,a0,a2
80002430:	00e787b3          	add	a5,a5,a4
80002434:	00a63533          	sltu	a0,a2,a0
80002438:	00a787b3          	add	a5,a5,a0
8000243c:	00879713          	slli	a4,a5,0x8
80002440:	00060513          	mv	a0,a2
80002444:	00075a63          	bgez	a4,80002458 <__adddf3+0x2b4>
80002448:	ff800737          	lui	a4,0xff800
8000244c:	fff70713          	addi	a4,a4,-1 # ff7fffff <__heap_start+0x7f7f6baf>
80002450:	00e7f7b3          	and	a5,a5,a4
80002454:	00100493          	li	s1,1
80002458:	00757713          	andi	a4,a0,7
8000245c:	42070863          	beqz	a4,8000288c <__adddf3+0x6e8>
80002460:	00f57713          	andi	a4,a0,15
80002464:	00400693          	li	a3,4
80002468:	42d70263          	beq	a4,a3,8000288c <__adddf3+0x6e8>
8000246c:	00450693          	addi	a3,a0,4
80002470:	00a6b533          	sltu	a0,a3,a0
80002474:	00a787b3          	add	a5,a5,a0
80002478:	00068513          	mv	a0,a3
8000247c:	4100006f          	j	8000288c <__adddf3+0x6e8>
80002480:	ee0680e3          	beqz	a3,80002360 <__adddf3+0x1bc>
80002484:	00c76633          	or	a2,a4,a2
80002488:	dc0600e3          	beqz	a2,80002248 <__adddf3+0xa4>
8000248c:	00000913          	li	s2,0
80002490:	004007b7          	lui	a5,0x400
80002494:	00000513          	li	a0,0
80002498:	7ff00493          	li	s1,2047
8000249c:	3f00006f          	j	8000288c <__adddf3+0x6e8>
800024a0:	7ff00593          	li	a1,2047
800024a4:	3cb68e63          	beq	a3,a1,80002880 <__adddf3+0x6dc>
800024a8:	00c50633          	add	a2,a0,a2
800024ac:	00e78733          	add	a4,a5,a4
800024b0:	00a637b3          	sltu	a5,a2,a0
800024b4:	00f70733          	add	a4,a4,a5
800024b8:	01f71513          	slli	a0,a4,0x1f
800024bc:	00165613          	srli	a2,a2,0x1
800024c0:	00c56533          	or	a0,a0,a2
800024c4:	00175793          	srli	a5,a4,0x1
800024c8:	00068493          	mv	s1,a3
800024cc:	f8dff06f          	j	80002458 <__adddf3+0x2b4>
800024d0:	0f005c63          	blez	a6,800025c8 <__adddf3+0x424>
800024d4:	08089e63          	bnez	a7,80002570 <__adddf3+0x3cc>
800024d8:	00c766b3          	or	a3,a4,a2
800024dc:	42068e63          	beqz	a3,80002918 <__adddf3+0x774>
800024e0:	fff80593          	addi	a1,a6,-1
800024e4:	02059063          	bnez	a1,80002504 <__adddf3+0x360>
800024e8:	40c50633          	sub	a2,a0,a2
800024ec:	00c53533          	sltu	a0,a0,a2
800024f0:	40e787b3          	sub	a5,a5,a4
800024f4:	40a787b3          	sub	a5,a5,a0
800024f8:	00060513          	mv	a0,a2
800024fc:	00100493          	li	s1,1
80002500:	0540006f          	j	80002554 <__adddf3+0x3b0>
80002504:	7ff00693          	li	a3,2047
80002508:	d4d800e3          	beq	a6,a3,80002248 <__adddf3+0xa4>
8000250c:	03800693          	li	a3,56
80002510:	0ab6c663          	blt	a3,a1,800025bc <__adddf3+0x418>
80002514:	01f00693          	li	a3,31
80002518:	06b6c863          	blt	a3,a1,80002588 <__adddf3+0x3e4>
8000251c:	02000813          	li	a6,32
80002520:	40b80833          	sub	a6,a6,a1
80002524:	010716b3          	sll	a3,a4,a6
80002528:	00b658b3          	srl	a7,a2,a1
8000252c:	01061633          	sll	a2,a2,a6
80002530:	0116e6b3          	or	a3,a3,a7
80002534:	00c03633          	snez	a2,a2
80002538:	00c6e633          	or	a2,a3,a2
8000253c:	00b75733          	srl	a4,a4,a1
80002540:	40c50633          	sub	a2,a0,a2
80002544:	40e78733          	sub	a4,a5,a4
80002548:	00c537b3          	sltu	a5,a0,a2
8000254c:	40f707b3          	sub	a5,a4,a5
80002550:	00060513          	mv	a0,a2
80002554:	00879713          	slli	a4,a5,0x8
80002558:	f00750e3          	bgez	a4,80002458 <__adddf3+0x2b4>
8000255c:	00800437          	lui	s0,0x800
80002560:	fff40413          	addi	s0,s0,-1 # 7fffff <__heap_size+0x7fbfff>
80002564:	0087f433          	and	s0,a5,s0
80002568:	00050993          	mv	s3,a0
8000256c:	20c0006f          	j	80002778 <__adddf3+0x5d4>
80002570:	7ff00693          	li	a3,2047
80002574:	eed482e3          	beq	s1,a3,80002458 <__adddf3+0x2b4>
80002578:	008006b7          	lui	a3,0x800
8000257c:	00d76733          	or	a4,a4,a3
80002580:	00080593          	mv	a1,a6
80002584:	f89ff06f          	j	8000250c <__adddf3+0x368>
80002588:	fe058693          	addi	a3,a1,-32
8000258c:	02000893          	li	a7,32
80002590:	00d756b3          	srl	a3,a4,a3
80002594:	00000813          	li	a6,0
80002598:	01158863          	beq	a1,a7,800025a8 <__adddf3+0x404>
8000259c:	04000813          	li	a6,64
800025a0:	40b805b3          	sub	a1,a6,a1
800025a4:	00b71833          	sll	a6,a4,a1
800025a8:	00c86633          	or	a2,a6,a2
800025ac:	00c03633          	snez	a2,a2
800025b0:	00c6e633          	or	a2,a3,a2
800025b4:	00000713          	li	a4,0
800025b8:	f89ff06f          	j	80002540 <__adddf3+0x39c>
800025bc:	00c76633          	or	a2,a4,a2
800025c0:	00c03633          	snez	a2,a2
800025c4:	ff1ff06f          	j	800025b4 <__adddf3+0x410>
800025c8:	0e080863          	beqz	a6,800026b8 <__adddf3+0x514>
800025cc:	40988833          	sub	a6,a7,s1
800025d0:	04049263          	bnez	s1,80002614 <__adddf3+0x470>
800025d4:	00a7e5b3          	or	a1,a5,a0
800025d8:	34058463          	beqz	a1,80002920 <__adddf3+0x77c>
800025dc:	fff80593          	addi	a1,a6,-1
800025e0:	00059e63          	bnez	a1,800025fc <__adddf3+0x458>
800025e4:	40a60533          	sub	a0,a2,a0
800025e8:	40f707b3          	sub	a5,a4,a5
800025ec:	00a63633          	sltu	a2,a2,a0
800025f0:	40c787b3          	sub	a5,a5,a2
800025f4:	00068913          	mv	s2,a3
800025f8:	f05ff06f          	j	800024fc <__adddf3+0x358>
800025fc:	7ff00313          	li	t1,2047
80002600:	02681463          	bne	a6,t1,80002628 <__adddf3+0x484>
80002604:	00070793          	mv	a5,a4
80002608:	00060513          	mv	a0,a2
8000260c:	7ff00493          	li	s1,2047
80002610:	0d00006f          	j	800026e0 <__adddf3+0x53c>
80002614:	7ff00593          	li	a1,2047
80002618:	feb886e3          	beq	a7,a1,80002604 <__adddf3+0x460>
8000261c:	008005b7          	lui	a1,0x800
80002620:	00b7e7b3          	or	a5,a5,a1
80002624:	00080593          	mv	a1,a6
80002628:	03800813          	li	a6,56
8000262c:	08b84063          	blt	a6,a1,800026ac <__adddf3+0x508>
80002630:	01f00813          	li	a6,31
80002634:	04b84263          	blt	a6,a1,80002678 <__adddf3+0x4d4>
80002638:	02000313          	li	t1,32
8000263c:	40b30333          	sub	t1,t1,a1
80002640:	00b55e33          	srl	t3,a0,a1
80002644:	00679833          	sll	a6,a5,t1
80002648:	00651533          	sll	a0,a0,t1
8000264c:	01c86833          	or	a6,a6,t3
80002650:	00a03533          	snez	a0,a0
80002654:	00a86533          	or	a0,a6,a0
80002658:	00b7d5b3          	srl	a1,a5,a1
8000265c:	40a60533          	sub	a0,a2,a0
80002660:	40b707b3          	sub	a5,a4,a1
80002664:	00a63633          	sltu	a2,a2,a0
80002668:	40c787b3          	sub	a5,a5,a2
8000266c:	00088493          	mv	s1,a7
80002670:	00068913          	mv	s2,a3
80002674:	ee1ff06f          	j	80002554 <__adddf3+0x3b0>
80002678:	fe058813          	addi	a6,a1,-32 # 7fffe0 <__heap_size+0x7fbfe0>
8000267c:	02000e13          	li	t3,32
80002680:	0107d833          	srl	a6,a5,a6
80002684:	00000313          	li	t1,0
80002688:	01c58863          	beq	a1,t3,80002698 <__adddf3+0x4f4>
8000268c:	04000313          	li	t1,64
80002690:	40b305b3          	sub	a1,t1,a1
80002694:	00b79333          	sll	t1,a5,a1
80002698:	00a36533          	or	a0,t1,a0
8000269c:	00a03533          	snez	a0,a0
800026a0:	00a86533          	or	a0,a6,a0
800026a4:	00000593          	li	a1,0
800026a8:	fb5ff06f          	j	8000265c <__adddf3+0x4b8>
800026ac:	00a7e533          	or	a0,a5,a0
800026b0:	00a03533          	snez	a0,a0
800026b4:	ff1ff06f          	j	800026a4 <__adddf3+0x500>
800026b8:	00148593          	addi	a1,s1,1
800026bc:	7fe5f593          	andi	a1,a1,2046
800026c0:	08059663          	bnez	a1,8000274c <__adddf3+0x5a8>
800026c4:	00a7e833          	or	a6,a5,a0
800026c8:	00c765b3          	or	a1,a4,a2
800026cc:	06049063          	bnez	s1,8000272c <__adddf3+0x588>
800026d0:	00081c63          	bnez	a6,800026e8 <__adddf3+0x544>
800026d4:	24058e63          	beqz	a1,80002930 <__adddf3+0x78c>
800026d8:	00070793          	mv	a5,a4
800026dc:	00060513          	mv	a0,a2
800026e0:	00068913          	mv	s2,a3
800026e4:	d75ff06f          	j	80002458 <__adddf3+0x2b4>
800026e8:	d60588e3          	beqz	a1,80002458 <__adddf3+0x2b4>
800026ec:	40c50833          	sub	a6,a0,a2
800026f0:	010538b3          	sltu	a7,a0,a6
800026f4:	40e785b3          	sub	a1,a5,a4
800026f8:	411585b3          	sub	a1,a1,a7
800026fc:	00859893          	slli	a7,a1,0x8
80002700:	0008dc63          	bgez	a7,80002718 <__adddf3+0x574>
80002704:	40a60533          	sub	a0,a2,a0
80002708:	40f707b3          	sub	a5,a4,a5
8000270c:	00a63633          	sltu	a2,a2,a0
80002710:	40c787b3          	sub	a5,a5,a2
80002714:	fcdff06f          	j	800026e0 <__adddf3+0x53c>
80002718:	00b86533          	or	a0,a6,a1
8000271c:	22050263          	beqz	a0,80002940 <__adddf3+0x79c>
80002720:	00058793          	mv	a5,a1
80002724:	00080513          	mv	a0,a6
80002728:	d31ff06f          	j	80002458 <__adddf3+0x2b4>
8000272c:	00081c63          	bnez	a6,80002744 <__adddf3+0x5a0>
80002730:	20058c63          	beqz	a1,80002948 <__adddf3+0x7a4>
80002734:	00070793          	mv	a5,a4
80002738:	00060513          	mv	a0,a2
8000273c:	00068913          	mv	s2,a3
80002740:	b09ff06f          	j	80002248 <__adddf3+0xa4>
80002744:	b00582e3          	beqz	a1,80002248 <__adddf3+0xa4>
80002748:	d45ff06f          	j	8000248c <__adddf3+0x2e8>
8000274c:	40c509b3          	sub	s3,a0,a2
80002750:	013535b3          	sltu	a1,a0,s3
80002754:	40e78433          	sub	s0,a5,a4
80002758:	40b40433          	sub	s0,s0,a1
8000275c:	00841593          	slli	a1,s0,0x8
80002760:	0805d463          	bgez	a1,800027e8 <__adddf3+0x644>
80002764:	40a609b3          	sub	s3,a2,a0
80002768:	40f707b3          	sub	a5,a4,a5
8000276c:	01363633          	sltu	a2,a2,s3
80002770:	40c78433          	sub	s0,a5,a2
80002774:	00068913          	mv	s2,a3
80002778:	08040263          	beqz	s0,800027fc <__adddf3+0x658>
8000277c:	00040513          	mv	a0,s0
80002780:	17c010ef          	jal	ra,800038fc <__clzsi2>
80002784:	ff850713          	addi	a4,a0,-8
80002788:	01f00793          	li	a5,31
8000278c:	08e7c063          	blt	a5,a4,8000280c <__adddf3+0x668>
80002790:	02000793          	li	a5,32
80002794:	40e787b3          	sub	a5,a5,a4
80002798:	00e41433          	sll	s0,s0,a4
8000279c:	00f9d7b3          	srl	a5,s3,a5
800027a0:	0087e433          	or	s0,a5,s0
800027a4:	00e99533          	sll	a0,s3,a4
800027a8:	0a974463          	blt	a4,s1,80002850 <__adddf3+0x6ac>
800027ac:	40970733          	sub	a4,a4,s1
800027b0:	00170793          	addi	a5,a4,1
800027b4:	01f00693          	li	a3,31
800027b8:	06f6c263          	blt	a3,a5,8000281c <__adddf3+0x678>
800027bc:	02000713          	li	a4,32
800027c0:	40f70733          	sub	a4,a4,a5
800027c4:	00f55633          	srl	a2,a0,a5
800027c8:	00e416b3          	sll	a3,s0,a4
800027cc:	00e51533          	sll	a0,a0,a4
800027d0:	00c6e6b3          	or	a3,a3,a2
800027d4:	00a03533          	snez	a0,a0
800027d8:	00a6e533          	or	a0,a3,a0
800027dc:	00f457b3          	srl	a5,s0,a5
800027e0:	00000493          	li	s1,0
800027e4:	c75ff06f          	j	80002458 <__adddf3+0x2b4>
800027e8:	0089e533          	or	a0,s3,s0
800027ec:	f80516e3          	bnez	a0,80002778 <__adddf3+0x5d4>
800027f0:	00000793          	li	a5,0
800027f4:	00000493          	li	s1,0
800027f8:	1400006f          	j	80002938 <__adddf3+0x794>
800027fc:	00098513          	mv	a0,s3
80002800:	0fc010ef          	jal	ra,800038fc <__clzsi2>
80002804:	02050513          	addi	a0,a0,32
80002808:	f7dff06f          	j	80002784 <__adddf3+0x5e0>
8000280c:	fd850413          	addi	s0,a0,-40
80002810:	00899433          	sll	s0,s3,s0
80002814:	00000513          	li	a0,0
80002818:	f91ff06f          	j	800027a8 <__adddf3+0x604>
8000281c:	fe170713          	addi	a4,a4,-31
80002820:	02000613          	li	a2,32
80002824:	00e45733          	srl	a4,s0,a4
80002828:	00000693          	li	a3,0
8000282c:	00c78863          	beq	a5,a2,8000283c <__adddf3+0x698>
80002830:	04000693          	li	a3,64
80002834:	40f686b3          	sub	a3,a3,a5
80002838:	00d416b3          	sll	a3,s0,a3
8000283c:	00d56533          	or	a0,a0,a3
80002840:	00a03533          	snez	a0,a0
80002844:	00a76533          	or	a0,a4,a0
80002848:	00000793          	li	a5,0
8000284c:	f95ff06f          	j	800027e0 <__adddf3+0x63c>
80002850:	ff8007b7          	lui	a5,0xff800
80002854:	fff78793          	addi	a5,a5,-1 # ff7fffff <__heap_start+0x7f7f6baf>
80002858:	40e484b3          	sub	s1,s1,a4
8000285c:	00f477b3          	and	a5,s0,a5
80002860:	bf9ff06f          	j	80002458 <__adddf3+0x2b4>
80002864:	00070793          	mv	a5,a4
80002868:	00060513          	mv	a0,a2
8000286c:	00058493          	mv	s1,a1
80002870:	be9ff06f          	j	80002458 <__adddf3+0x2b4>
80002874:	00070793          	mv	a5,a4
80002878:	00060513          	mv	a0,a2
8000287c:	bddff06f          	j	80002458 <__adddf3+0x2b4>
80002880:	7ff00493          	li	s1,2047
80002884:	00000793          	li	a5,0
80002888:	00000513          	li	a0,0
8000288c:	00879713          	slli	a4,a5,0x8
80002890:	00075e63          	bgez	a4,800028ac <__adddf3+0x708>
80002894:	00148493          	addi	s1,s1,1
80002898:	7ff00713          	li	a4,2047
8000289c:	0ae48e63          	beq	s1,a4,80002958 <__adddf3+0x7b4>
800028a0:	ff800737          	lui	a4,0xff800
800028a4:	fff70713          	addi	a4,a4,-1 # ff7fffff <__heap_start+0x7f7f6baf>
800028a8:	00e7f7b3          	and	a5,a5,a4
800028ac:	01d79713          	slli	a4,a5,0x1d
800028b0:	00355513          	srli	a0,a0,0x3
800028b4:	00a76533          	or	a0,a4,a0
800028b8:	7ff00713          	li	a4,2047
800028bc:	0037d793          	srli	a5,a5,0x3
800028c0:	00e49e63          	bne	s1,a4,800028dc <__adddf3+0x738>
800028c4:	00f56533          	or	a0,a0,a5
800028c8:	00000793          	li	a5,0
800028cc:	00050863          	beqz	a0,800028dc <__adddf3+0x738>
800028d0:	000807b7          	lui	a5,0x80
800028d4:	00000513          	li	a0,0
800028d8:	00000913          	li	s2,0
800028dc:	7ff4f713          	andi	a4,s1,2047
800028e0:	00c79793          	slli	a5,a5,0xc
800028e4:	01471713          	slli	a4,a4,0x14
800028e8:	01c12083          	lw	ra,28(sp)
800028ec:	01812403          	lw	s0,24(sp)
800028f0:	00c7d793          	srli	a5,a5,0xc
800028f4:	01f91593          	slli	a1,s2,0x1f
800028f8:	00e7e7b3          	or	a5,a5,a4
800028fc:	00b7e733          	or	a4,a5,a1
80002900:	01412483          	lw	s1,20(sp)
80002904:	01012903          	lw	s2,16(sp)
80002908:	00c12983          	lw	s3,12(sp)
8000290c:	00070593          	mv	a1,a4
80002910:	02010113          	addi	sp,sp,32
80002914:	00008067          	ret
80002918:	00080493          	mv	s1,a6
8000291c:	b3dff06f          	j	80002458 <__adddf3+0x2b4>
80002920:	00070793          	mv	a5,a4
80002924:	00060513          	mv	a0,a2
80002928:	00080493          	mv	s1,a6
8000292c:	db5ff06f          	j	800026e0 <__adddf3+0x53c>
80002930:	00000793          	li	a5,0
80002934:	00000513          	li	a0,0
80002938:	00000913          	li	s2,0
8000293c:	f51ff06f          	j	8000288c <__adddf3+0x6e8>
80002940:	00000793          	li	a5,0
80002944:	ff5ff06f          	j	80002938 <__adddf3+0x794>
80002948:	00000513          	li	a0,0
8000294c:	00000913          	li	s2,0
80002950:	004007b7          	lui	a5,0x400
80002954:	b45ff06f          	j	80002498 <__adddf3+0x2f4>
80002958:	00000793          	li	a5,0
8000295c:	00000513          	li	a0,0
80002960:	f4dff06f          	j	800028ac <__adddf3+0x708>

80002964 <__ledf2>:
80002964:	0145d813          	srli	a6,a1,0x14
80002968:	001007b7          	lui	a5,0x100
8000296c:	fff78793          	addi	a5,a5,-1 # fffff <__heap_size+0xfbfff>
80002970:	0146d713          	srli	a4,a3,0x14
80002974:	00050313          	mv	t1,a0
80002978:	00050e93          	mv	t4,a0
8000297c:	7ff87813          	andi	a6,a6,2047
80002980:	7ff00513          	li	a0,2047
80002984:	00b7f8b3          	and	a7,a5,a1
80002988:	00060f13          	mv	t5,a2
8000298c:	00d7f7b3          	and	a5,a5,a3
80002990:	01f5d593          	srli	a1,a1,0x1f
80002994:	7ff77713          	andi	a4,a4,2047
80002998:	01f6d693          	srli	a3,a3,0x1f
8000299c:	00a81a63          	bne	a6,a0,800029b0 <__ledf2+0x4c>
800029a0:	0068ee33          	or	t3,a7,t1
800029a4:	00200513          	li	a0,2
800029a8:	080e0a63          	beqz	t3,80002a3c <__ledf2+0xd8>
800029ac:	00008067          	ret
800029b0:	00a71863          	bne	a4,a0,800029c0 <__ledf2+0x5c>
800029b4:	00c7ee33          	or	t3,a5,a2
800029b8:	00200513          	li	a0,2
800029bc:	020e1663          	bnez	t3,800029e8 <__ledf2+0x84>
800029c0:	08081063          	bnez	a6,80002a40 <__ledf2+0xdc>
800029c4:	0068e533          	or	a0,a7,t1
800029c8:	00153513          	seqz	a0,a0
800029cc:	00071663          	bnez	a4,800029d8 <__ledf2+0x74>
800029d0:	00c7e633          	or	a2,a5,a2
800029d4:	04060a63          	beqz	a2,80002a28 <__ledf2+0xc4>
800029d8:	00051a63          	bnez	a0,800029ec <__ledf2+0x88>
800029dc:	00d58e63          	beq	a1,a3,800029f8 <__ledf2+0x94>
800029e0:	00100513          	li	a0,1
800029e4:	00059663          	bnez	a1,800029f0 <__ledf2+0x8c>
800029e8:	00008067          	ret
800029ec:	fe069ee3          	bnez	a3,800029e8 <__ledf2+0x84>
800029f0:	fff00513          	li	a0,-1
800029f4:	00008067          	ret
800029f8:	ff0744e3          	blt	a4,a6,800029e0 <__ledf2+0x7c>
800029fc:	00e85a63          	ble	a4,a6,80002a10 <__ledf2+0xac>
80002a00:	fff00513          	li	a0,-1
80002a04:	fe0582e3          	beqz	a1,800029e8 <__ledf2+0x84>
80002a08:	00100513          	li	a0,1
80002a0c:	00008067          	ret
80002a10:	fd17e8e3          	bltu	a5,a7,800029e0 <__ledf2+0x7c>
80002a14:	02f89063          	bne	a7,a5,80002a34 <__ledf2+0xd0>
80002a18:	fddf64e3          	bltu	t5,t4,800029e0 <__ledf2+0x7c>
80002a1c:	00000513          	li	a0,0
80002a20:	fdeef4e3          	bleu	t5,t4,800029e8 <__ledf2+0x84>
80002a24:	fddff06f          	j	80002a00 <__ledf2+0x9c>
80002a28:	fa050ce3          	beqz	a0,800029e0 <__ledf2+0x7c>
80002a2c:	00000513          	li	a0,0
80002a30:	00008067          	ret
80002a34:	fcf8e6e3          	bltu	a7,a5,80002a00 <__ledf2+0x9c>
80002a38:	ff5ff06f          	j	80002a2c <__ledf2+0xc8>
80002a3c:	f7070ce3          	beq	a4,a6,800029b4 <__ledf2+0x50>
80002a40:	f8071ee3          	bnez	a4,800029dc <__ledf2+0x78>
80002a44:	00000513          	li	a0,0
80002a48:	f89ff06f          	j	800029d0 <__ledf2+0x6c>

80002a4c <__muldf3>:
80002a4c:	fd010113          	addi	sp,sp,-48
80002a50:	03212023          	sw	s2,32(sp)
80002a54:	0145d913          	srli	s2,a1,0x14
80002a58:	01312e23          	sw	s3,28(sp)
80002a5c:	01412c23          	sw	s4,24(sp)
80002a60:	01512a23          	sw	s5,20(sp)
80002a64:	01612823          	sw	s6,16(sp)
80002a68:	01712623          	sw	s7,12(sp)
80002a6c:	00c59a93          	slli	s5,a1,0xc
80002a70:	02112623          	sw	ra,44(sp)
80002a74:	02812423          	sw	s0,40(sp)
80002a78:	02912223          	sw	s1,36(sp)
80002a7c:	7ff97913          	andi	s2,s2,2047
80002a80:	00050b13          	mv	s6,a0
80002a84:	00060b93          	mv	s7,a2
80002a88:	00068a13          	mv	s4,a3
80002a8c:	00cada93          	srli	s5,s5,0xc
80002a90:	01f5d993          	srli	s3,a1,0x1f
80002a94:	0a090463          	beqz	s2,80002b3c <__muldf3+0xf0>
80002a98:	7ff00793          	li	a5,2047
80002a9c:	10f90263          	beq	s2,a5,80002ba0 <__muldf3+0x154>
80002aa0:	01d55413          	srli	s0,a0,0x1d
80002aa4:	003a9a93          	slli	s5,s5,0x3
80002aa8:	01546ab3          	or	s5,s0,s5
80002aac:	00800437          	lui	s0,0x800
80002ab0:	008ae433          	or	s0,s5,s0
80002ab4:	00351493          	slli	s1,a0,0x3
80002ab8:	c0190913          	addi	s2,s2,-1023
80002abc:	00000b13          	li	s6,0
80002ac0:	014a5513          	srli	a0,s4,0x14
80002ac4:	00ca1a93          	slli	s5,s4,0xc
80002ac8:	7ff57513          	andi	a0,a0,2047
80002acc:	000b8713          	mv	a4,s7
80002ad0:	00cada93          	srli	s5,s5,0xc
80002ad4:	01fa5a13          	srli	s4,s4,0x1f
80002ad8:	10050263          	beqz	a0,80002bdc <__muldf3+0x190>
80002adc:	7ff00793          	li	a5,2047
80002ae0:	16f50263          	beq	a0,a5,80002c44 <__muldf3+0x1f8>
80002ae4:	01dbd793          	srli	a5,s7,0x1d
80002ae8:	003a9a93          	slli	s5,s5,0x3
80002aec:	0157eab3          	or	s5,a5,s5
80002af0:	008007b7          	lui	a5,0x800
80002af4:	00fae7b3          	or	a5,s5,a5
80002af8:	003b9713          	slli	a4,s7,0x3
80002afc:	c0150513          	addi	a0,a0,-1023
80002b00:	00000693          	li	a3,0
80002b04:	002b1593          	slli	a1,s6,0x2
80002b08:	00d5e5b3          	or	a1,a1,a3
80002b0c:	00a90533          	add	a0,s2,a0
80002b10:	fff58593          	addi	a1,a1,-1
80002b14:	00e00893          	li	a7,14
80002b18:	0149c633          	xor	a2,s3,s4
80002b1c:	00150813          	addi	a6,a0,1
80002b20:	14b8ee63          	bltu	a7,a1,80002c7c <__muldf3+0x230>
80002b24:	80005537          	lui	a0,0x80005
80002b28:	00259593          	slli	a1,a1,0x2
80002b2c:	0e450513          	addi	a0,a0,228 # 800050e4 <__heap_start+0xffffbc94>
80002b30:	00a585b3          	add	a1,a1,a0
80002b34:	0005a583          	lw	a1,0(a1)
80002b38:	00058067          	jr	a1
80002b3c:	00aae433          	or	s0,s5,a0
80002b40:	06040e63          	beqz	s0,80002bbc <__muldf3+0x170>
80002b44:	040a8063          	beqz	s5,80002b84 <__muldf3+0x138>
80002b48:	000a8513          	mv	a0,s5
80002b4c:	5b1000ef          	jal	ra,800038fc <__clzsi2>
80002b50:	ff550793          	addi	a5,a0,-11
80002b54:	01c00713          	li	a4,28
80002b58:	02f74c63          	blt	a4,a5,80002b90 <__muldf3+0x144>
80002b5c:	01d00413          	li	s0,29
80002b60:	ff850493          	addi	s1,a0,-8
80002b64:	40f40433          	sub	s0,s0,a5
80002b68:	009a9ab3          	sll	s5,s5,s1
80002b6c:	008b5433          	srl	s0,s6,s0
80002b70:	01546433          	or	s0,s0,s5
80002b74:	009b14b3          	sll	s1,s6,s1
80002b78:	c0d00913          	li	s2,-1011
80002b7c:	40a90933          	sub	s2,s2,a0
80002b80:	f3dff06f          	j	80002abc <__muldf3+0x70>
80002b84:	579000ef          	jal	ra,800038fc <__clzsi2>
80002b88:	02050513          	addi	a0,a0,32
80002b8c:	fc5ff06f          	j	80002b50 <__muldf3+0x104>
80002b90:	fd850413          	addi	s0,a0,-40
80002b94:	008b1433          	sll	s0,s6,s0
80002b98:	00000493          	li	s1,0
80002b9c:	fddff06f          	j	80002b78 <__muldf3+0x12c>
80002ba0:	00aae433          	or	s0,s5,a0
80002ba4:	02040463          	beqz	s0,80002bcc <__muldf3+0x180>
80002ba8:	00050493          	mv	s1,a0
80002bac:	000a8413          	mv	s0,s5
80002bb0:	7ff00913          	li	s2,2047
80002bb4:	00300b13          	li	s6,3
80002bb8:	f09ff06f          	j	80002ac0 <__muldf3+0x74>
80002bbc:	00000493          	li	s1,0
80002bc0:	00000913          	li	s2,0
80002bc4:	00100b13          	li	s6,1
80002bc8:	ef9ff06f          	j	80002ac0 <__muldf3+0x74>
80002bcc:	00000493          	li	s1,0
80002bd0:	7ff00913          	li	s2,2047
80002bd4:	00200b13          	li	s6,2
80002bd8:	ee9ff06f          	j	80002ac0 <__muldf3+0x74>
80002bdc:	017ae7b3          	or	a5,s5,s7
80002be0:	06078e63          	beqz	a5,80002c5c <__muldf3+0x210>
80002be4:	040a8063          	beqz	s5,80002c24 <__muldf3+0x1d8>
80002be8:	000a8513          	mv	a0,s5
80002bec:	511000ef          	jal	ra,800038fc <__clzsi2>
80002bf0:	ff550693          	addi	a3,a0,-11
80002bf4:	01c00793          	li	a5,28
80002bf8:	02d7ce63          	blt	a5,a3,80002c34 <__muldf3+0x1e8>
80002bfc:	01d00793          	li	a5,29
80002c00:	ff850713          	addi	a4,a0,-8
80002c04:	40d787b3          	sub	a5,a5,a3
80002c08:	00ea9ab3          	sll	s5,s5,a4
80002c0c:	00fbd7b3          	srl	a5,s7,a5
80002c10:	0157e7b3          	or	a5,a5,s5
80002c14:	00eb9733          	sll	a4,s7,a4
80002c18:	c0d00613          	li	a2,-1011
80002c1c:	40a60533          	sub	a0,a2,a0
80002c20:	ee1ff06f          	j	80002b00 <__muldf3+0xb4>
80002c24:	000b8513          	mv	a0,s7
80002c28:	4d5000ef          	jal	ra,800038fc <__clzsi2>
80002c2c:	02050513          	addi	a0,a0,32
80002c30:	fc1ff06f          	j	80002bf0 <__muldf3+0x1a4>
80002c34:	fd850793          	addi	a5,a0,-40
80002c38:	00fb97b3          	sll	a5,s7,a5
80002c3c:	00000713          	li	a4,0
80002c40:	fd9ff06f          	j	80002c18 <__muldf3+0x1cc>
80002c44:	017ae7b3          	or	a5,s5,s7
80002c48:	02078263          	beqz	a5,80002c6c <__muldf3+0x220>
80002c4c:	000a8793          	mv	a5,s5
80002c50:	7ff00513          	li	a0,2047
80002c54:	00300693          	li	a3,3
80002c58:	eadff06f          	j	80002b04 <__muldf3+0xb8>
80002c5c:	00000713          	li	a4,0
80002c60:	00000513          	li	a0,0
80002c64:	00100693          	li	a3,1
80002c68:	e9dff06f          	j	80002b04 <__muldf3+0xb8>
80002c6c:	00000713          	li	a4,0
80002c70:	7ff00513          	li	a0,2047
80002c74:	00200693          	li	a3,2
80002c78:	e8dff06f          	j	80002b04 <__muldf3+0xb8>
80002c7c:	00010fb7          	lui	t6,0x10
80002c80:	ffff8f13          	addi	t5,t6,-1 # ffff <__heap_size+0xbfff>
80002c84:	0104d693          	srli	a3,s1,0x10
80002c88:	01075313          	srli	t1,a4,0x10
80002c8c:	01e4f4b3          	and	s1,s1,t5
80002c90:	01e77733          	and	a4,a4,t5
80002c94:	029308b3          	mul	a7,t1,s1
80002c98:	029705b3          	mul	a1,a4,s1
80002c9c:	02e682b3          	mul	t0,a3,a4
80002ca0:	00588e33          	add	t3,a7,t0
80002ca4:	0105d893          	srli	a7,a1,0x10
80002ca8:	01c888b3          	add	a7,a7,t3
80002cac:	02668eb3          	mul	t4,a3,t1
80002cb0:	0058f463          	bleu	t0,a7,80002cb8 <__muldf3+0x26c>
80002cb4:	01fe8eb3          	add	t4,t4,t6
80002cb8:	0108d913          	srli	s2,a7,0x10
80002cbc:	01e8f8b3          	and	a7,a7,t5
80002cc0:	0107df93          	srli	t6,a5,0x10
80002cc4:	01e5f5b3          	and	a1,a1,t5
80002cc8:	01e7f3b3          	and	t2,a5,t5
80002ccc:	01089893          	slli	a7,a7,0x10
80002cd0:	00b888b3          	add	a7,a7,a1
80002cd4:	027687b3          	mul	a5,a3,t2
80002cd8:	029385b3          	mul	a1,t2,s1
80002cdc:	029f84b3          	mul	s1,t6,s1
80002ce0:	00f48e33          	add	t3,s1,a5
80002ce4:	0105d493          	srli	s1,a1,0x10
80002ce8:	01c484b3          	add	s1,s1,t3
80002cec:	03f686b3          	mul	a3,a3,t6
80002cf0:	00f4f663          	bleu	a5,s1,80002cfc <__muldf3+0x2b0>
80002cf4:	000107b7          	lui	a5,0x10
80002cf8:	00f686b3          	add	a3,a3,a5
80002cfc:	0104df13          	srli	t5,s1,0x10
80002d00:	000109b7          	lui	s3,0x10
80002d04:	00df0f33          	add	t5,t5,a3
80002d08:	fff98693          	addi	a3,s3,-1 # ffff <__heap_size+0xbfff>
80002d0c:	00d4f4b3          	and	s1,s1,a3
80002d10:	00d5f5b3          	and	a1,a1,a3
80002d14:	01045793          	srli	a5,s0,0x10
80002d18:	01049493          	slli	s1,s1,0x10
80002d1c:	00d47433          	and	s0,s0,a3
80002d20:	00b484b3          	add	s1,s1,a1
80002d24:	028706b3          	mul	a3,a4,s0
80002d28:	00990933          	add	s2,s2,s1
80002d2c:	02e78e33          	mul	t3,a5,a4
80002d30:	028305b3          	mul	a1,t1,s0
80002d34:	02f30733          	mul	a4,t1,a5
80002d38:	01c58333          	add	t1,a1,t3
80002d3c:	0106d593          	srli	a1,a3,0x10
80002d40:	006585b3          	add	a1,a1,t1
80002d44:	01c5f463          	bleu	t3,a1,80002d4c <__muldf3+0x300>
80002d48:	01370733          	add	a4,a4,s3
80002d4c:	0105d313          	srli	t1,a1,0x10
80002d50:	000109b7          	lui	s3,0x10
80002d54:	00e302b3          	add	t0,t1,a4
80002d58:	fff98713          	addi	a4,s3,-1 # ffff <__heap_size+0xbfff>
80002d5c:	00e5f5b3          	and	a1,a1,a4
80002d60:	00e6f6b3          	and	a3,a3,a4
80002d64:	02838333          	mul	t1,t2,s0
80002d68:	01059593          	slli	a1,a1,0x10
80002d6c:	00d585b3          	add	a1,a1,a3
80002d70:	02778733          	mul	a4,a5,t2
80002d74:	028f8433          	mul	s0,t6,s0
80002d78:	02ff8e33          	mul	t3,t6,a5
80002d7c:	00e40433          	add	s0,s0,a4
80002d80:	01035793          	srli	a5,t1,0x10
80002d84:	00878433          	add	s0,a5,s0
80002d88:	00e47463          	bleu	a4,s0,80002d90 <__muldf3+0x344>
80002d8c:	013e0e33          	add	t3,t3,s3
80002d90:	000107b7          	lui	a5,0x10
80002d94:	fff78793          	addi	a5,a5,-1 # ffff <__heap_size+0xbfff>
80002d98:	00f476b3          	and	a3,s0,a5
80002d9c:	00f37333          	and	t1,t1,a5
80002da0:	01069693          	slli	a3,a3,0x10
80002da4:	012e8eb3          	add	t4,t4,s2
80002da8:	006686b3          	add	a3,a3,t1
80002dac:	009eb4b3          	sltu	s1,t4,s1
80002db0:	01e686b3          	add	a3,a3,t5
80002db4:	009687b3          	add	a5,a3,s1
80002db8:	00be8eb3          	add	t4,t4,a1
80002dbc:	00beb5b3          	sltu	a1,t4,a1
80002dc0:	00578333          	add	t1,a5,t0
80002dc4:	00b30fb3          	add	t6,t1,a1
80002dc8:	01e6b6b3          	sltu	a3,a3,t5
80002dcc:	0097b7b3          	sltu	a5,a5,s1
80002dd0:	00f6e7b3          	or	a5,a3,a5
80002dd4:	01045413          	srli	s0,s0,0x10
80002dd8:	00533333          	sltu	t1,t1,t0
80002ddc:	00bfb5b3          	sltu	a1,t6,a1
80002de0:	008787b3          	add	a5,a5,s0
80002de4:	00b365b3          	or	a1,t1,a1
80002de8:	00b787b3          	add	a5,a5,a1
80002dec:	01c787b3          	add	a5,a5,t3
80002df0:	017fd713          	srli	a4,t6,0x17
80002df4:	00979793          	slli	a5,a5,0x9
80002df8:	00e7e7b3          	or	a5,a5,a4
80002dfc:	009e9713          	slli	a4,t4,0x9
80002e00:	01176733          	or	a4,a4,a7
80002e04:	00e03733          	snez	a4,a4
80002e08:	017ede93          	srli	t4,t4,0x17
80002e0c:	009f9693          	slli	a3,t6,0x9
80002e10:	01d76733          	or	a4,a4,t4
80002e14:	00d76733          	or	a4,a4,a3
80002e18:	00779693          	slli	a3,a5,0x7
80002e1c:	1006d263          	bgez	a3,80002f20 <__muldf3+0x4d4>
80002e20:	00175693          	srli	a3,a4,0x1
80002e24:	00177713          	andi	a4,a4,1
80002e28:	00e6e733          	or	a4,a3,a4
80002e2c:	01f79693          	slli	a3,a5,0x1f
80002e30:	00d76733          	or	a4,a4,a3
80002e34:	0017d793          	srli	a5,a5,0x1
80002e38:	3ff80593          	addi	a1,a6,1023
80002e3c:	0eb05663          	blez	a1,80002f28 <__muldf3+0x4dc>
80002e40:	00777693          	andi	a3,a4,7
80002e44:	02068063          	beqz	a3,80002e64 <__muldf3+0x418>
80002e48:	00f77693          	andi	a3,a4,15
80002e4c:	00400513          	li	a0,4
80002e50:	00a68a63          	beq	a3,a0,80002e64 <__muldf3+0x418>
80002e54:	00470693          	addi	a3,a4,4
80002e58:	00e6b733          	sltu	a4,a3,a4
80002e5c:	00e787b3          	add	a5,a5,a4
80002e60:	00068713          	mv	a4,a3
80002e64:	00779693          	slli	a3,a5,0x7
80002e68:	0006da63          	bgez	a3,80002e7c <__muldf3+0x430>
80002e6c:	ff0006b7          	lui	a3,0xff000
80002e70:	fff68693          	addi	a3,a3,-1 # feffffff <__heap_start+0x7eff6baf>
80002e74:	00d7f7b3          	and	a5,a5,a3
80002e78:	40080593          	addi	a1,a6,1024
80002e7c:	7fe00693          	li	a3,2046
80002e80:	16b6c663          	blt	a3,a1,80002fec <__muldf3+0x5a0>
80002e84:	00375693          	srli	a3,a4,0x3
80002e88:	01d79713          	slli	a4,a5,0x1d
80002e8c:	00d76733          	or	a4,a4,a3
80002e90:	0037d793          	srli	a5,a5,0x3
80002e94:	7ff5f693          	andi	a3,a1,2047
80002e98:	00c79793          	slli	a5,a5,0xc
80002e9c:	01469693          	slli	a3,a3,0x14
80002ea0:	02c12083          	lw	ra,44(sp)
80002ea4:	02812403          	lw	s0,40(sp)
80002ea8:	00c7d793          	srli	a5,a5,0xc
80002eac:	01f61613          	slli	a2,a2,0x1f
80002eb0:	00d7e7b3          	or	a5,a5,a3
80002eb4:	00c7e6b3          	or	a3,a5,a2
80002eb8:	02412483          	lw	s1,36(sp)
80002ebc:	02012903          	lw	s2,32(sp)
80002ec0:	01c12983          	lw	s3,28(sp)
80002ec4:	01812a03          	lw	s4,24(sp)
80002ec8:	01412a83          	lw	s5,20(sp)
80002ecc:	01012b03          	lw	s6,16(sp)
80002ed0:	00c12b83          	lw	s7,12(sp)
80002ed4:	00070513          	mv	a0,a4
80002ed8:	00068593          	mv	a1,a3
80002edc:	03010113          	addi	sp,sp,48
80002ee0:	00008067          	ret
80002ee4:	00098613          	mv	a2,s3
80002ee8:	00040793          	mv	a5,s0
80002eec:	00048713          	mv	a4,s1
80002ef0:	000b0693          	mv	a3,s6
80002ef4:	00200593          	li	a1,2
80002ef8:	0eb68a63          	beq	a3,a1,80002fec <__muldf3+0x5a0>
80002efc:	00300593          	li	a1,3
80002f00:	0cb68c63          	beq	a3,a1,80002fd8 <__muldf3+0x58c>
80002f04:	00100593          	li	a1,1
80002f08:	f2b698e3          	bne	a3,a1,80002e38 <__muldf3+0x3ec>
80002f0c:	00000793          	li	a5,0
80002f10:	00000713          	li	a4,0
80002f14:	0880006f          	j	80002f9c <__muldf3+0x550>
80002f18:	000a0613          	mv	a2,s4
80002f1c:	fd9ff06f          	j	80002ef4 <__muldf3+0x4a8>
80002f20:	00050813          	mv	a6,a0
80002f24:	f15ff06f          	j	80002e38 <__muldf3+0x3ec>
80002f28:	00100513          	li	a0,1
80002f2c:	40b50533          	sub	a0,a0,a1
80002f30:	03800693          	li	a3,56
80002f34:	fca6cce3          	blt	a3,a0,80002f0c <__muldf3+0x4c0>
80002f38:	01f00693          	li	a3,31
80002f3c:	06a6c463          	blt	a3,a0,80002fa4 <__muldf3+0x558>
80002f40:	41e80813          	addi	a6,a6,1054
80002f44:	010796b3          	sll	a3,a5,a6
80002f48:	00a755b3          	srl	a1,a4,a0
80002f4c:	01071733          	sll	a4,a4,a6
80002f50:	00b6e6b3          	or	a3,a3,a1
80002f54:	00e03733          	snez	a4,a4
80002f58:	00e6e733          	or	a4,a3,a4
80002f5c:	00a7d7b3          	srl	a5,a5,a0
80002f60:	00777693          	andi	a3,a4,7
80002f64:	02068063          	beqz	a3,80002f84 <__muldf3+0x538>
80002f68:	00f77693          	andi	a3,a4,15
80002f6c:	00400593          	li	a1,4
80002f70:	00b68a63          	beq	a3,a1,80002f84 <__muldf3+0x538>
80002f74:	00470693          	addi	a3,a4,4
80002f78:	00e6b733          	sltu	a4,a3,a4
80002f7c:	00e787b3          	add	a5,a5,a4
80002f80:	00068713          	mv	a4,a3
80002f84:	00879693          	slli	a3,a5,0x8
80002f88:	0606ca63          	bltz	a3,80002ffc <__muldf3+0x5b0>
80002f8c:	01d79693          	slli	a3,a5,0x1d
80002f90:	00375713          	srli	a4,a4,0x3
80002f94:	00e6e733          	or	a4,a3,a4
80002f98:	0037d793          	srli	a5,a5,0x3
80002f9c:	00000593          	li	a1,0
80002fa0:	ef5ff06f          	j	80002e94 <__muldf3+0x448>
80002fa4:	fe100693          	li	a3,-31
80002fa8:	40b686b3          	sub	a3,a3,a1
80002fac:	02000893          	li	a7,32
80002fb0:	00d7d6b3          	srl	a3,a5,a3
80002fb4:	00000593          	li	a1,0
80002fb8:	01150663          	beq	a0,a7,80002fc4 <__muldf3+0x578>
80002fbc:	43e80813          	addi	a6,a6,1086
80002fc0:	010795b3          	sll	a1,a5,a6
80002fc4:	00e5e733          	or	a4,a1,a4
80002fc8:	00e03733          	snez	a4,a4
80002fcc:	00e6e733          	or	a4,a3,a4
80002fd0:	00000793          	li	a5,0
80002fd4:	f8dff06f          	j	80002f60 <__muldf3+0x514>
80002fd8:	000807b7          	lui	a5,0x80
80002fdc:	00000713          	li	a4,0
80002fe0:	7ff00593          	li	a1,2047
80002fe4:	00000613          	li	a2,0
80002fe8:	eadff06f          	j	80002e94 <__muldf3+0x448>
80002fec:	00000793          	li	a5,0
80002ff0:	00000713          	li	a4,0
80002ff4:	7ff00593          	li	a1,2047
80002ff8:	e9dff06f          	j	80002e94 <__muldf3+0x448>
80002ffc:	00000793          	li	a5,0
80003000:	00000713          	li	a4,0
80003004:	00100593          	li	a1,1
80003008:	e8dff06f          	j	80002e94 <__muldf3+0x448>

8000300c <__subdf3>:
8000300c:	00100837          	lui	a6,0x100
80003010:	fff80813          	addi	a6,a6,-1 # fffff <__heap_size+0xfbfff>
80003014:	00b878b3          	and	a7,a6,a1
80003018:	00389893          	slli	a7,a7,0x3
8000301c:	01d55793          	srli	a5,a0,0x1d
80003020:	fe010113          	addi	sp,sp,-32
80003024:	0145d713          	srli	a4,a1,0x14
80003028:	00d87833          	and	a6,a6,a3
8000302c:	0117e7b3          	or	a5,a5,a7
80003030:	0146d893          	srli	a7,a3,0x14
80003034:	00912a23          	sw	s1,20(sp)
80003038:	01212823          	sw	s2,16(sp)
8000303c:	7ff77493          	andi	s1,a4,2047
80003040:	01f5d913          	srli	s2,a1,0x1f
80003044:	01d65713          	srli	a4,a2,0x1d
80003048:	00381813          	slli	a6,a6,0x3
8000304c:	00112e23          	sw	ra,28(sp)
80003050:	00812c23          	sw	s0,24(sp)
80003054:	01312623          	sw	s3,12(sp)
80003058:	7ff8f893          	andi	a7,a7,2047
8000305c:	7ff00593          	li	a1,2047
80003060:	00351513          	slli	a0,a0,0x3
80003064:	01f6d693          	srli	a3,a3,0x1f
80003068:	01076733          	or	a4,a4,a6
8000306c:	00361613          	slli	a2,a2,0x3
80003070:	00b89663          	bne	a7,a1,8000307c <__subdf3+0x70>
80003074:	00c765b3          	or	a1,a4,a2
80003078:	00059463          	bnez	a1,80003080 <__subdf3+0x74>
8000307c:	0016c693          	xori	a3,a3,1
80003080:	41148833          	sub	a6,s1,a7
80003084:	2d269063          	bne	a3,s2,80003344 <__subdf3+0x338>
80003088:	13005c63          	blez	a6,800031c0 <__subdf3+0x1b4>
8000308c:	06089063          	bnez	a7,800030ec <__subdf3+0xe0>
80003090:	00c766b3          	or	a3,a4,a2
80003094:	02068863          	beqz	a3,800030c4 <__subdf3+0xb8>
80003098:	fff48813          	addi	a6,s1,-1
8000309c:	02081063          	bnez	a6,800030bc <__subdf3+0xb0>
800030a0:	00c50633          	add	a2,a0,a2
800030a4:	00a63533          	sltu	a0,a2,a0
800030a8:	00e787b3          	add	a5,a5,a4
800030ac:	00a787b3          	add	a5,a5,a0
800030b0:	00060513          	mv	a0,a2
800030b4:	00100493          	li	s1,1
800030b8:	08c0006f          	j	80003144 <__subdf3+0x138>
800030bc:	7ff00693          	li	a3,2047
800030c0:	02d49e63          	bne	s1,a3,800030fc <__subdf3+0xf0>
800030c4:	00757713          	andi	a4,a0,7
800030c8:	62070c63          	beqz	a4,80003700 <__subdf3+0x6f4>
800030cc:	00f57713          	andi	a4,a0,15
800030d0:	00400693          	li	a3,4
800030d4:	62d70663          	beq	a4,a3,80003700 <__subdf3+0x6f4>
800030d8:	00450693          	addi	a3,a0,4
800030dc:	00a6b533          	sltu	a0,a3,a0
800030e0:	00a787b3          	add	a5,a5,a0
800030e4:	00068513          	mv	a0,a3
800030e8:	6180006f          	j	80003700 <__subdf3+0x6f4>
800030ec:	7ff00693          	li	a3,2047
800030f0:	fcd48ae3          	beq	s1,a3,800030c4 <__subdf3+0xb8>
800030f4:	008006b7          	lui	a3,0x800
800030f8:	00d76733          	or	a4,a4,a3
800030fc:	03800693          	li	a3,56
80003100:	0b06ca63          	blt	a3,a6,800031b4 <__subdf3+0x1a8>
80003104:	01f00693          	li	a3,31
80003108:	0706cc63          	blt	a3,a6,80003180 <__subdf3+0x174>
8000310c:	02000593          	li	a1,32
80003110:	410585b3          	sub	a1,a1,a6
80003114:	00b716b3          	sll	a3,a4,a1
80003118:	010658b3          	srl	a7,a2,a6
8000311c:	00b61633          	sll	a2,a2,a1
80003120:	0116e6b3          	or	a3,a3,a7
80003124:	00c03633          	snez	a2,a2
80003128:	00c6e633          	or	a2,a3,a2
8000312c:	01075733          	srl	a4,a4,a6
80003130:	00a60633          	add	a2,a2,a0
80003134:	00f70733          	add	a4,a4,a5
80003138:	00a637b3          	sltu	a5,a2,a0
8000313c:	00f707b3          	add	a5,a4,a5
80003140:	00060513          	mv	a0,a2
80003144:	00879713          	slli	a4,a5,0x8
80003148:	f6075ee3          	bgez	a4,800030c4 <__subdf3+0xb8>
8000314c:	00148493          	addi	s1,s1,1
80003150:	7ff00713          	li	a4,2047
80003154:	5ae48263          	beq	s1,a4,800036f8 <__subdf3+0x6ec>
80003158:	ff8006b7          	lui	a3,0xff800
8000315c:	fff68693          	addi	a3,a3,-1 # ff7fffff <__heap_start+0x7f7f6baf>
80003160:	00d7f6b3          	and	a3,a5,a3
80003164:	00155593          	srli	a1,a0,0x1
80003168:	00157513          	andi	a0,a0,1
8000316c:	01f69793          	slli	a5,a3,0x1f
80003170:	00a5e533          	or	a0,a1,a0
80003174:	00a7e533          	or	a0,a5,a0
80003178:	0016d793          	srli	a5,a3,0x1
8000317c:	f49ff06f          	j	800030c4 <__subdf3+0xb8>
80003180:	fe080693          	addi	a3,a6,-32
80003184:	02000893          	li	a7,32
80003188:	00d756b3          	srl	a3,a4,a3
8000318c:	00000593          	li	a1,0
80003190:	01180863          	beq	a6,a7,800031a0 <__subdf3+0x194>
80003194:	04000593          	li	a1,64
80003198:	41058833          	sub	a6,a1,a6
8000319c:	010715b3          	sll	a1,a4,a6
800031a0:	00c5e633          	or	a2,a1,a2
800031a4:	00c03633          	snez	a2,a2
800031a8:	00c6e633          	or	a2,a3,a2
800031ac:	00000713          	li	a4,0
800031b0:	f81ff06f          	j	80003130 <__subdf3+0x124>
800031b4:	00c76633          	or	a2,a4,a2
800031b8:	00c03633          	snez	a2,a2
800031bc:	ff1ff06f          	j	800031ac <__subdf3+0x1a0>
800031c0:	0e080263          	beqz	a6,800032a4 <__subdf3+0x298>
800031c4:	409885b3          	sub	a1,a7,s1
800031c8:	02049e63          	bnez	s1,80003204 <__subdf3+0x1f8>
800031cc:	00a7e6b3          	or	a3,a5,a0
800031d0:	50068463          	beqz	a3,800036d8 <__subdf3+0x6cc>
800031d4:	fff58693          	addi	a3,a1,-1
800031d8:	00069c63          	bnez	a3,800031f0 <__subdf3+0x1e4>
800031dc:	00c50533          	add	a0,a0,a2
800031e0:	00e787b3          	add	a5,a5,a4
800031e4:	00c53633          	sltu	a2,a0,a2
800031e8:	00c787b3          	add	a5,a5,a2
800031ec:	ec9ff06f          	j	800030b4 <__subdf3+0xa8>
800031f0:	7ff00813          	li	a6,2047
800031f4:	03059263          	bne	a1,a6,80003218 <__subdf3+0x20c>
800031f8:	00070793          	mv	a5,a4
800031fc:	00060513          	mv	a0,a2
80003200:	3b00006f          	j	800035b0 <__subdf3+0x5a4>
80003204:	7ff00693          	li	a3,2047
80003208:	fed888e3          	beq	a7,a3,800031f8 <__subdf3+0x1ec>
8000320c:	008006b7          	lui	a3,0x800
80003210:	00d7e7b3          	or	a5,a5,a3
80003214:	00058693          	mv	a3,a1
80003218:	03800593          	li	a1,56
8000321c:	06d5ce63          	blt	a1,a3,80003298 <__subdf3+0x28c>
80003220:	01f00593          	li	a1,31
80003224:	04d5c063          	blt	a1,a3,80003264 <__subdf3+0x258>
80003228:	02000813          	li	a6,32
8000322c:	40d80833          	sub	a6,a6,a3
80003230:	00d55333          	srl	t1,a0,a3
80003234:	010795b3          	sll	a1,a5,a6
80003238:	01051533          	sll	a0,a0,a6
8000323c:	0065e5b3          	or	a1,a1,t1
80003240:	00a03533          	snez	a0,a0
80003244:	00a5e533          	or	a0,a1,a0
80003248:	00d7d6b3          	srl	a3,a5,a3
8000324c:	00c50533          	add	a0,a0,a2
80003250:	00e687b3          	add	a5,a3,a4
80003254:	00c53633          	sltu	a2,a0,a2
80003258:	00c787b3          	add	a5,a5,a2
8000325c:	00088493          	mv	s1,a7
80003260:	ee5ff06f          	j	80003144 <__subdf3+0x138>
80003264:	fe068593          	addi	a1,a3,-32 # 7fffe0 <__heap_size+0x7fbfe0>
80003268:	02000313          	li	t1,32
8000326c:	00b7d5b3          	srl	a1,a5,a1
80003270:	00000813          	li	a6,0
80003274:	00668863          	beq	a3,t1,80003284 <__subdf3+0x278>
80003278:	04000813          	li	a6,64
8000327c:	40d806b3          	sub	a3,a6,a3
80003280:	00d79833          	sll	a6,a5,a3
80003284:	00a86533          	or	a0,a6,a0
80003288:	00a03533          	snez	a0,a0
8000328c:	00a5e533          	or	a0,a1,a0
80003290:	00000693          	li	a3,0
80003294:	fb9ff06f          	j	8000324c <__subdf3+0x240>
80003298:	00a7e533          	or	a0,a5,a0
8000329c:	00a03533          	snez	a0,a0
800032a0:	ff1ff06f          	j	80003290 <__subdf3+0x284>
800032a4:	00148693          	addi	a3,s1,1
800032a8:	7fe6f593          	andi	a1,a3,2046
800032ac:	06059463          	bnez	a1,80003314 <__subdf3+0x308>
800032b0:	00a7e6b3          	or	a3,a5,a0
800032b4:	04049063          	bnez	s1,800032f4 <__subdf3+0x2e8>
800032b8:	42068863          	beqz	a3,800036e8 <__subdf3+0x6dc>
800032bc:	00c766b3          	or	a3,a4,a2
800032c0:	e00682e3          	beqz	a3,800030c4 <__subdf3+0xb8>
800032c4:	00c50633          	add	a2,a0,a2
800032c8:	00e787b3          	add	a5,a5,a4
800032cc:	00a63533          	sltu	a0,a2,a0
800032d0:	00a787b3          	add	a5,a5,a0
800032d4:	00879713          	slli	a4,a5,0x8
800032d8:	00060513          	mv	a0,a2
800032dc:	de0754e3          	bgez	a4,800030c4 <__subdf3+0xb8>
800032e0:	ff800737          	lui	a4,0xff800
800032e4:	fff70713          	addi	a4,a4,-1 # ff7fffff <__heap_start+0x7f7f6baf>
800032e8:	00e7f7b3          	and	a5,a5,a4
800032ec:	00100493          	li	s1,1
800032f0:	dd5ff06f          	j	800030c4 <__subdf3+0xb8>
800032f4:	f00682e3          	beqz	a3,800031f8 <__subdf3+0x1ec>
800032f8:	00c76633          	or	a2,a4,a2
800032fc:	2a060a63          	beqz	a2,800035b0 <__subdf3+0x5a4>
80003300:	00000913          	li	s2,0
80003304:	004007b7          	lui	a5,0x400
80003308:	00000513          	li	a0,0
8000330c:	7ff00493          	li	s1,2047
80003310:	3f00006f          	j	80003700 <__subdf3+0x6f4>
80003314:	7ff00593          	li	a1,2047
80003318:	3cb68e63          	beq	a3,a1,800036f4 <__subdf3+0x6e8>
8000331c:	00c50633          	add	a2,a0,a2
80003320:	00e78733          	add	a4,a5,a4
80003324:	00a637b3          	sltu	a5,a2,a0
80003328:	00f70733          	add	a4,a4,a5
8000332c:	01f71513          	slli	a0,a4,0x1f
80003330:	00165613          	srli	a2,a2,0x1
80003334:	00c56533          	or	a0,a0,a2
80003338:	00175793          	srli	a5,a4,0x1
8000333c:	00068493          	mv	s1,a3
80003340:	d85ff06f          	j	800030c4 <__subdf3+0xb8>
80003344:	0f005a63          	blez	a6,80003438 <__subdf3+0x42c>
80003348:	08089e63          	bnez	a7,800033e4 <__subdf3+0x3d8>
8000334c:	00c766b3          	or	a3,a4,a2
80003350:	d6068ae3          	beqz	a3,800030c4 <__subdf3+0xb8>
80003354:	fff48813          	addi	a6,s1,-1
80003358:	02081063          	bnez	a6,80003378 <__subdf3+0x36c>
8000335c:	40c50633          	sub	a2,a0,a2
80003360:	00c53533          	sltu	a0,a0,a2
80003364:	40e787b3          	sub	a5,a5,a4
80003368:	40a787b3          	sub	a5,a5,a0
8000336c:	00060513          	mv	a0,a2
80003370:	00100493          	li	s1,1
80003374:	0540006f          	j	800033c8 <__subdf3+0x3bc>
80003378:	7ff00693          	li	a3,2047
8000337c:	d4d484e3          	beq	s1,a3,800030c4 <__subdf3+0xb8>
80003380:	03800693          	li	a3,56
80003384:	0b06c463          	blt	a3,a6,8000342c <__subdf3+0x420>
80003388:	01f00693          	li	a3,31
8000338c:	0706c663          	blt	a3,a6,800033f8 <__subdf3+0x3ec>
80003390:	02000593          	li	a1,32
80003394:	410585b3          	sub	a1,a1,a6
80003398:	00b716b3          	sll	a3,a4,a1
8000339c:	010658b3          	srl	a7,a2,a6
800033a0:	00b61633          	sll	a2,a2,a1
800033a4:	0116e6b3          	or	a3,a3,a7
800033a8:	00c03633          	snez	a2,a2
800033ac:	00c6e633          	or	a2,a3,a2
800033b0:	01075733          	srl	a4,a4,a6
800033b4:	40c50633          	sub	a2,a0,a2
800033b8:	40e78733          	sub	a4,a5,a4
800033bc:	00c537b3          	sltu	a5,a0,a2
800033c0:	40f707b3          	sub	a5,a4,a5
800033c4:	00060513          	mv	a0,a2
800033c8:	00879713          	slli	a4,a5,0x8
800033cc:	ce075ce3          	bgez	a4,800030c4 <__subdf3+0xb8>
800033d0:	00800437          	lui	s0,0x800
800033d4:	fff40413          	addi	s0,s0,-1 # 7fffff <__heap_size+0x7fbfff>
800033d8:	0087f433          	and	s0,a5,s0
800033dc:	00050993          	mv	s3,a0
800033e0:	20c0006f          	j	800035ec <__subdf3+0x5e0>
800033e4:	7ff00693          	li	a3,2047
800033e8:	ccd48ee3          	beq	s1,a3,800030c4 <__subdf3+0xb8>
800033ec:	008006b7          	lui	a3,0x800
800033f0:	00d76733          	or	a4,a4,a3
800033f4:	f8dff06f          	j	80003380 <__subdf3+0x374>
800033f8:	fe080693          	addi	a3,a6,-32
800033fc:	02000893          	li	a7,32
80003400:	00d756b3          	srl	a3,a4,a3
80003404:	00000593          	li	a1,0
80003408:	01180863          	beq	a6,a7,80003418 <__subdf3+0x40c>
8000340c:	04000593          	li	a1,64
80003410:	41058833          	sub	a6,a1,a6
80003414:	010715b3          	sll	a1,a4,a6
80003418:	00c5e633          	or	a2,a1,a2
8000341c:	00c03633          	snez	a2,a2
80003420:	00c6e633          	or	a2,a3,a2
80003424:	00000713          	li	a4,0
80003428:	f8dff06f          	j	800033b4 <__subdf3+0x3a8>
8000342c:	00c76633          	or	a2,a4,a2
80003430:	00c03633          	snez	a2,a2
80003434:	ff1ff06f          	j	80003424 <__subdf3+0x418>
80003438:	0e080863          	beqz	a6,80003528 <__subdf3+0x51c>
8000343c:	40988833          	sub	a6,a7,s1
80003440:	04049263          	bnez	s1,80003484 <__subdf3+0x478>
80003444:	00a7e5b3          	or	a1,a5,a0
80003448:	34058263          	beqz	a1,8000378c <__subdf3+0x780>
8000344c:	fff80593          	addi	a1,a6,-1
80003450:	00059e63          	bnez	a1,8000346c <__subdf3+0x460>
80003454:	40a60533          	sub	a0,a2,a0
80003458:	40f707b3          	sub	a5,a4,a5
8000345c:	00a63633          	sltu	a2,a2,a0
80003460:	40c787b3          	sub	a5,a5,a2
80003464:	00068913          	mv	s2,a3
80003468:	f09ff06f          	j	80003370 <__subdf3+0x364>
8000346c:	7ff00313          	li	t1,2047
80003470:	02681463          	bne	a6,t1,80003498 <__subdf3+0x48c>
80003474:	00070793          	mv	a5,a4
80003478:	00060513          	mv	a0,a2
8000347c:	7ff00493          	li	s1,2047
80003480:	0d00006f          	j	80003550 <__subdf3+0x544>
80003484:	7ff00593          	li	a1,2047
80003488:	feb886e3          	beq	a7,a1,80003474 <__subdf3+0x468>
8000348c:	008005b7          	lui	a1,0x800
80003490:	00b7e7b3          	or	a5,a5,a1
80003494:	00080593          	mv	a1,a6
80003498:	03800813          	li	a6,56
8000349c:	08b84063          	blt	a6,a1,8000351c <__subdf3+0x510>
800034a0:	01f00813          	li	a6,31
800034a4:	04b84263          	blt	a6,a1,800034e8 <__subdf3+0x4dc>
800034a8:	02000313          	li	t1,32
800034ac:	40b30333          	sub	t1,t1,a1
800034b0:	00b55e33          	srl	t3,a0,a1
800034b4:	00679833          	sll	a6,a5,t1
800034b8:	00651533          	sll	a0,a0,t1
800034bc:	01c86833          	or	a6,a6,t3
800034c0:	00a03533          	snez	a0,a0
800034c4:	00a86533          	or	a0,a6,a0
800034c8:	00b7d5b3          	srl	a1,a5,a1
800034cc:	40a60533          	sub	a0,a2,a0
800034d0:	40b707b3          	sub	a5,a4,a1
800034d4:	00a63633          	sltu	a2,a2,a0
800034d8:	40c787b3          	sub	a5,a5,a2
800034dc:	00088493          	mv	s1,a7
800034e0:	00068913          	mv	s2,a3
800034e4:	ee5ff06f          	j	800033c8 <__subdf3+0x3bc>
800034e8:	fe058813          	addi	a6,a1,-32 # 7fffe0 <__heap_size+0x7fbfe0>
800034ec:	02000e13          	li	t3,32
800034f0:	0107d833          	srl	a6,a5,a6
800034f4:	00000313          	li	t1,0
800034f8:	01c58863          	beq	a1,t3,80003508 <__subdf3+0x4fc>
800034fc:	04000313          	li	t1,64
80003500:	40b305b3          	sub	a1,t1,a1
80003504:	00b79333          	sll	t1,a5,a1
80003508:	00a36533          	or	a0,t1,a0
8000350c:	00a03533          	snez	a0,a0
80003510:	00a86533          	or	a0,a6,a0
80003514:	00000593          	li	a1,0
80003518:	fb5ff06f          	j	800034cc <__subdf3+0x4c0>
8000351c:	00a7e533          	or	a0,a5,a0
80003520:	00a03533          	snez	a0,a0
80003524:	ff1ff06f          	j	80003514 <__subdf3+0x508>
80003528:	00148593          	addi	a1,s1,1
8000352c:	7fe5f593          	andi	a1,a1,2046
80003530:	08059863          	bnez	a1,800035c0 <__subdf3+0x5b4>
80003534:	00a7e833          	or	a6,a5,a0
80003538:	00c765b3          	or	a1,a4,a2
8000353c:	06049063          	bnez	s1,8000359c <__subdf3+0x590>
80003540:	00081c63          	bnez	a6,80003558 <__subdf3+0x54c>
80003544:	24058c63          	beqz	a1,8000379c <__subdf3+0x790>
80003548:	00070793          	mv	a5,a4
8000354c:	00060513          	mv	a0,a2
80003550:	00068913          	mv	s2,a3
80003554:	b71ff06f          	j	800030c4 <__subdf3+0xb8>
80003558:	b60586e3          	beqz	a1,800030c4 <__subdf3+0xb8>
8000355c:	40c50833          	sub	a6,a0,a2
80003560:	010538b3          	sltu	a7,a0,a6
80003564:	40e785b3          	sub	a1,a5,a4
80003568:	411585b3          	sub	a1,a1,a7
8000356c:	00859893          	slli	a7,a1,0x8
80003570:	0008dc63          	bgez	a7,80003588 <__subdf3+0x57c>
80003574:	40a60533          	sub	a0,a2,a0
80003578:	40f707b3          	sub	a5,a4,a5
8000357c:	00a63633          	sltu	a2,a2,a0
80003580:	40c787b3          	sub	a5,a5,a2
80003584:	fcdff06f          	j	80003550 <__subdf3+0x544>
80003588:	00b86533          	or	a0,a6,a1
8000358c:	22050063          	beqz	a0,800037ac <__subdf3+0x7a0>
80003590:	00058793          	mv	a5,a1
80003594:	00080513          	mv	a0,a6
80003598:	b2dff06f          	j	800030c4 <__subdf3+0xb8>
8000359c:	00081e63          	bnez	a6,800035b8 <__subdf3+0x5ac>
800035a0:	20058a63          	beqz	a1,800037b4 <__subdf3+0x7a8>
800035a4:	00070793          	mv	a5,a4
800035a8:	00060513          	mv	a0,a2
800035ac:	00068913          	mv	s2,a3
800035b0:	7ff00493          	li	s1,2047
800035b4:	b11ff06f          	j	800030c4 <__subdf3+0xb8>
800035b8:	fe058ce3          	beqz	a1,800035b0 <__subdf3+0x5a4>
800035bc:	d45ff06f          	j	80003300 <__subdf3+0x2f4>
800035c0:	40c509b3          	sub	s3,a0,a2
800035c4:	013535b3          	sltu	a1,a0,s3
800035c8:	40e78433          	sub	s0,a5,a4
800035cc:	40b40433          	sub	s0,s0,a1
800035d0:	00841593          	slli	a1,s0,0x8
800035d4:	0805d463          	bgez	a1,8000365c <__subdf3+0x650>
800035d8:	40a609b3          	sub	s3,a2,a0
800035dc:	40f707b3          	sub	a5,a4,a5
800035e0:	01363633          	sltu	a2,a2,s3
800035e4:	40c78433          	sub	s0,a5,a2
800035e8:	00068913          	mv	s2,a3
800035ec:	08040263          	beqz	s0,80003670 <__subdf3+0x664>
800035f0:	00040513          	mv	a0,s0
800035f4:	308000ef          	jal	ra,800038fc <__clzsi2>
800035f8:	ff850713          	addi	a4,a0,-8
800035fc:	01f00793          	li	a5,31
80003600:	08e7c063          	blt	a5,a4,80003680 <__subdf3+0x674>
80003604:	02000793          	li	a5,32
80003608:	40e787b3          	sub	a5,a5,a4
8000360c:	00e41433          	sll	s0,s0,a4
80003610:	00f9d7b3          	srl	a5,s3,a5
80003614:	0087e433          	or	s0,a5,s0
80003618:	00e99533          	sll	a0,s3,a4
8000361c:	0a974463          	blt	a4,s1,800036c4 <__subdf3+0x6b8>
80003620:	40970733          	sub	a4,a4,s1
80003624:	00170793          	addi	a5,a4,1
80003628:	01f00693          	li	a3,31
8000362c:	06f6c263          	blt	a3,a5,80003690 <__subdf3+0x684>
80003630:	02000713          	li	a4,32
80003634:	40f70733          	sub	a4,a4,a5
80003638:	00f55633          	srl	a2,a0,a5
8000363c:	00e416b3          	sll	a3,s0,a4
80003640:	00e51533          	sll	a0,a0,a4
80003644:	00c6e6b3          	or	a3,a3,a2
80003648:	00a03533          	snez	a0,a0
8000364c:	00a6e533          	or	a0,a3,a0
80003650:	00f457b3          	srl	a5,s0,a5
80003654:	00000493          	li	s1,0
80003658:	a6dff06f          	j	800030c4 <__subdf3+0xb8>
8000365c:	0089e533          	or	a0,s3,s0
80003660:	f80516e3          	bnez	a0,800035ec <__subdf3+0x5e0>
80003664:	00000793          	li	a5,0
80003668:	00000493          	li	s1,0
8000366c:	1380006f          	j	800037a4 <__subdf3+0x798>
80003670:	00098513          	mv	a0,s3
80003674:	288000ef          	jal	ra,800038fc <__clzsi2>
80003678:	02050513          	addi	a0,a0,32
8000367c:	f7dff06f          	j	800035f8 <__subdf3+0x5ec>
80003680:	fd850413          	addi	s0,a0,-40
80003684:	00899433          	sll	s0,s3,s0
80003688:	00000513          	li	a0,0
8000368c:	f91ff06f          	j	8000361c <__subdf3+0x610>
80003690:	fe170713          	addi	a4,a4,-31
80003694:	02000613          	li	a2,32
80003698:	00e45733          	srl	a4,s0,a4
8000369c:	00000693          	li	a3,0
800036a0:	00c78863          	beq	a5,a2,800036b0 <__subdf3+0x6a4>
800036a4:	04000693          	li	a3,64
800036a8:	40f686b3          	sub	a3,a3,a5
800036ac:	00d416b3          	sll	a3,s0,a3
800036b0:	00d56533          	or	a0,a0,a3
800036b4:	00a03533          	snez	a0,a0
800036b8:	00a76533          	or	a0,a4,a0
800036bc:	00000793          	li	a5,0
800036c0:	f95ff06f          	j	80003654 <__subdf3+0x648>
800036c4:	ff8007b7          	lui	a5,0xff800
800036c8:	fff78793          	addi	a5,a5,-1 # ff7fffff <__heap_start+0x7f7f6baf>
800036cc:	40e484b3          	sub	s1,s1,a4
800036d0:	00f477b3          	and	a5,s0,a5
800036d4:	9f1ff06f          	j	800030c4 <__subdf3+0xb8>
800036d8:	00070793          	mv	a5,a4
800036dc:	00060513          	mv	a0,a2
800036e0:	00058493          	mv	s1,a1
800036e4:	9e1ff06f          	j	800030c4 <__subdf3+0xb8>
800036e8:	00070793          	mv	a5,a4
800036ec:	00060513          	mv	a0,a2
800036f0:	9d5ff06f          	j	800030c4 <__subdf3+0xb8>
800036f4:	7ff00493          	li	s1,2047
800036f8:	00000793          	li	a5,0
800036fc:	00000513          	li	a0,0
80003700:	00879713          	slli	a4,a5,0x8
80003704:	00075e63          	bgez	a4,80003720 <__subdf3+0x714>
80003708:	00148493          	addi	s1,s1,1
8000370c:	7ff00713          	li	a4,2047
80003710:	0ae48a63          	beq	s1,a4,800037c4 <__subdf3+0x7b8>
80003714:	ff800737          	lui	a4,0xff800
80003718:	fff70713          	addi	a4,a4,-1 # ff7fffff <__heap_start+0x7f7f6baf>
8000371c:	00e7f7b3          	and	a5,a5,a4
80003720:	01d79713          	slli	a4,a5,0x1d
80003724:	00355513          	srli	a0,a0,0x3
80003728:	00a76533          	or	a0,a4,a0
8000372c:	7ff00713          	li	a4,2047
80003730:	0037d793          	srli	a5,a5,0x3
80003734:	00e49e63          	bne	s1,a4,80003750 <__subdf3+0x744>
80003738:	00f56533          	or	a0,a0,a5
8000373c:	00000793          	li	a5,0
80003740:	00050863          	beqz	a0,80003750 <__subdf3+0x744>
80003744:	000807b7          	lui	a5,0x80
80003748:	00000513          	li	a0,0
8000374c:	00000913          	li	s2,0
80003750:	7ff4f713          	andi	a4,s1,2047
80003754:	00c79793          	slli	a5,a5,0xc
80003758:	01471713          	slli	a4,a4,0x14
8000375c:	01c12083          	lw	ra,28(sp)
80003760:	01812403          	lw	s0,24(sp)
80003764:	00c7d793          	srli	a5,a5,0xc
80003768:	01f91593          	slli	a1,s2,0x1f
8000376c:	00e7e7b3          	or	a5,a5,a4
80003770:	00b7e733          	or	a4,a5,a1
80003774:	01412483          	lw	s1,20(sp)
80003778:	01012903          	lw	s2,16(sp)
8000377c:	00c12983          	lw	s3,12(sp)
80003780:	00070593          	mv	a1,a4
80003784:	02010113          	addi	sp,sp,32
80003788:	00008067          	ret
8000378c:	00070793          	mv	a5,a4
80003790:	00060513          	mv	a0,a2
80003794:	00080493          	mv	s1,a6
80003798:	db9ff06f          	j	80003550 <__subdf3+0x544>
8000379c:	00000793          	li	a5,0
800037a0:	00000513          	li	a0,0
800037a4:	00000913          	li	s2,0
800037a8:	f59ff06f          	j	80003700 <__subdf3+0x6f4>
800037ac:	00000793          	li	a5,0
800037b0:	ff5ff06f          	j	800037a4 <__subdf3+0x798>
800037b4:	00000513          	li	a0,0
800037b8:	00000913          	li	s2,0
800037bc:	004007b7          	lui	a5,0x400
800037c0:	b4dff06f          	j	8000330c <__subdf3+0x300>
800037c4:	00000793          	li	a5,0
800037c8:	00000513          	li	a0,0
800037cc:	f55ff06f          	j	80003720 <__subdf3+0x714>

800037d0 <__fixdfsi>:
800037d0:	0145d713          	srli	a4,a1,0x14
800037d4:	001006b7          	lui	a3,0x100
800037d8:	fff68793          	addi	a5,a3,-1 # fffff <__heap_size+0xfbfff>
800037dc:	7ff77713          	andi	a4,a4,2047
800037e0:	3fe00613          	li	a2,1022
800037e4:	00b7f7b3          	and	a5,a5,a1
800037e8:	01f5d593          	srli	a1,a1,0x1f
800037ec:	04e65e63          	ble	a4,a2,80003848 <__fixdfsi+0x78>
800037f0:	41d00613          	li	a2,1053
800037f4:	00e65a63          	ble	a4,a2,80003808 <__fixdfsi+0x38>
800037f8:	80000537          	lui	a0,0x80000
800037fc:	fff54513          	not	a0,a0
80003800:	00a58533          	add	a0,a1,a0
80003804:	00008067          	ret
80003808:	00d7e7b3          	or	a5,a5,a3
8000380c:	43300693          	li	a3,1075
80003810:	40e686b3          	sub	a3,a3,a4
80003814:	01f00613          	li	a2,31
80003818:	02d64063          	blt	a2,a3,80003838 <__fixdfsi+0x68>
8000381c:	bed70713          	addi	a4,a4,-1043
80003820:	00e797b3          	sll	a5,a5,a4
80003824:	00d55533          	srl	a0,a0,a3
80003828:	00a7e533          	or	a0,a5,a0
8000382c:	02058063          	beqz	a1,8000384c <__fixdfsi+0x7c>
80003830:	40a00533          	neg	a0,a0
80003834:	00008067          	ret
80003838:	41300513          	li	a0,1043
8000383c:	40e50533          	sub	a0,a0,a4
80003840:	00a7d533          	srl	a0,a5,a0
80003844:	fe9ff06f          	j	8000382c <__fixdfsi+0x5c>
80003848:	00000513          	li	a0,0
8000384c:	00008067          	ret

80003850 <__floatsidf>:
80003850:	ff010113          	addi	sp,sp,-16
80003854:	00112623          	sw	ra,12(sp)
80003858:	00812423          	sw	s0,8(sp)
8000385c:	00912223          	sw	s1,4(sp)
80003860:	08050463          	beqz	a0,800038e8 <__floatsidf+0x98>
80003864:	41f55793          	srai	a5,a0,0x1f
80003868:	00a7c433          	xor	s0,a5,a0
8000386c:	40f40433          	sub	s0,s0,a5
80003870:	01f55493          	srli	s1,a0,0x1f
80003874:	00040513          	mv	a0,s0
80003878:	084000ef          	jal	ra,800038fc <__clzsi2>
8000387c:	41e00713          	li	a4,1054
80003880:	00a00793          	li	a5,10
80003884:	40a70733          	sub	a4,a4,a0
80003888:	04a7c863          	blt	a5,a0,800038d8 <__floatsidf+0x88>
8000388c:	00b00793          	li	a5,11
80003890:	40a787b3          	sub	a5,a5,a0
80003894:	01550513          	addi	a0,a0,21 # 80000015 <__heap_start+0xffff6bc5>
80003898:	00f457b3          	srl	a5,s0,a5
8000389c:	00a41433          	sll	s0,s0,a0
800038a0:	00c79793          	slli	a5,a5,0xc
800038a4:	7ff77713          	andi	a4,a4,2047
800038a8:	01471713          	slli	a4,a4,0x14
800038ac:	00040513          	mv	a0,s0
800038b0:	00c12083          	lw	ra,12(sp)
800038b4:	00812403          	lw	s0,8(sp)
800038b8:	00c7d793          	srli	a5,a5,0xc
800038bc:	01f49493          	slli	s1,s1,0x1f
800038c0:	00e7e7b3          	or	a5,a5,a4
800038c4:	0097e733          	or	a4,a5,s1
800038c8:	00070593          	mv	a1,a4
800038cc:	00412483          	lw	s1,4(sp)
800038d0:	01010113          	addi	sp,sp,16
800038d4:	00008067          	ret
800038d8:	ff550513          	addi	a0,a0,-11
800038dc:	00a417b3          	sll	a5,s0,a0
800038e0:	00000413          	li	s0,0
800038e4:	fbdff06f          	j	800038a0 <__floatsidf+0x50>
800038e8:	00000793          	li	a5,0
800038ec:	00000413          	li	s0,0
800038f0:	00000713          	li	a4,0
800038f4:	00000493          	li	s1,0
800038f8:	fa9ff06f          	j	800038a0 <__floatsidf+0x50>

800038fc <__clzsi2>:
800038fc:	000107b7          	lui	a5,0x10
80003900:	02f57a63          	bleu	a5,a0,80003934 <__clzsi2+0x38>
80003904:	0ff00793          	li	a5,255
80003908:	00a7b7b3          	sltu	a5,a5,a0
8000390c:	00379793          	slli	a5,a5,0x3
80003910:	02000713          	li	a4,32
80003914:	40f70733          	sub	a4,a4,a5
80003918:	00f557b3          	srl	a5,a0,a5
8000391c:	80005537          	lui	a0,0x80005
80003920:	12050513          	addi	a0,a0,288 # 80005120 <__heap_start+0xffffbcd0>
80003924:	00a787b3          	add	a5,a5,a0
80003928:	0007c503          	lbu	a0,0(a5) # 10000 <__heap_size+0xc000>
8000392c:	40a70533          	sub	a0,a4,a0
80003930:	00008067          	ret
80003934:	01000737          	lui	a4,0x1000
80003938:	01000793          	li	a5,16
8000393c:	fce56ae3          	bltu	a0,a4,80003910 <__clzsi2+0x14>
80003940:	01800793          	li	a5,24
80003944:	fcdff06f          	j	80003910 <__clzsi2+0x14>

Disassembly of section .text.startup:

80003948 <main>:
80003948:	ff010113          	addi	sp,sp,-16
8000394c:	00812423          	sw	s0,8(sp)
80003950:	80005437          	lui	s0,0x80005
80003954:	a8040513          	addi	a0,s0,-1408 # 80004a80 <__heap_start+0xffffb630>
80003958:	00112623          	sw	ra,12(sp)
8000395c:	00912223          	sw	s1,4(sp)
80003960:	01212023          	sw	s2,0(sp)
80003964:	b9dfc0ef          	jal	ra,80000500 <printf>
80003968:	800054b7          	lui	s1,0x80005
8000396c:	80005537          	lui	a0,0x80005
80003970:	ac048593          	addi	a1,s1,-1344 # 80004ac0 <__heap_start+0xffffb670>
80003974:	acc50513          	addi	a0,a0,-1332 # 80004acc <__heap_start+0xffffb67c>
80003978:	b89fc0ef          	jal	ra,80000500 <printf>
8000397c:	a8040513          	addi	a0,s0,-1408
80003980:	b81fc0ef          	jal	ra,80000500 <printf>
80003984:	820005b7          	lui	a1,0x82000
80003988:	ac048513          	addi	a0,s1,-1344
8000398c:	cd0fd0ef          	jal	ra,80000e5c <read_file>
80003990:	04050c63          	beqz	a0,800039e8 <main+0xa0>
80003994:	00050413          	mv	s0,a0
80003998:	80005537          	lui	a0,0x80005
8000399c:	ac048593          	addi	a1,s1,-1344
800039a0:	b3050513          	addi	a0,a0,-1232 # 80004b30 <__heap_start+0xffffb6e0>
800039a4:	b5dfc0ef          	jal	ra,80000500 <printf>
800039a8:	80005937          	lui	s2,0x80005
800039ac:	b5490513          	addi	a0,s2,-1196 # 80004b54 <__heap_start+0xffffb704>
800039b0:	820004b7          	lui	s1,0x82000
800039b4:	009404b3          	add	s1,s0,s1
800039b8:	b49fc0ef          	jal	ra,80000500 <printf>
800039bc:	82000437          	lui	s0,0x82000
800039c0:	00044503          	lbu	a0,0(s0) # 82000000 <__heap_start+0x1ff6bb0>
800039c4:	00140413          	addi	s0,s0,1
800039c8:	e80fc0ef          	jal	ra,80000048 <putchar>
800039cc:	fe849ae3          	bne	s1,s0,800039c0 <main+0x78>
800039d0:	b5490513          	addi	a0,s2,-1196
800039d4:	b2dfc0ef          	jal	ra,80000500 <printf>
800039d8:	80005537          	lui	a0,0x80005
800039dc:	ba050513          	addi	a0,a0,-1120 # 80004ba0 <__heap_start+0xffffb750>
800039e0:	b21fc0ef          	jal	ra,80000500 <printf>
800039e4:	0000006f          	j	800039e4 <main+0x9c>
800039e8:	80005537          	lui	a0,0x80005
800039ec:	ac048593          	addi	a1,s1,-1344 # 81fffac0 <__heap_start+0x1ff6670>
800039f0:	b0450513          	addi	a0,a0,-1276 # 80004b04 <__heap_start+0xffffb6b4>
800039f4:	b0dfc0ef          	jal	ra,80000500 <printf>
800039f8:	00c12083          	lw	ra,12(sp)
800039fc:	00812403          	lw	s0,8(sp)
80003a00:	00412483          	lw	s1,4(sp)
80003a04:	00012903          	lw	s2,0(sp)
80003a08:	fff00513          	li	a0,-1
80003a0c:	01010113          	addi	sp,sp,16
80003a10:	00008067          	ret
